
factorial:     file format elf64-littleriscv


Disassembly of section .text:

00000000000100b0 <register_fini>:
   100b0:	ffff0797          	auipc	a5,0xffff0
   100b4:	f5078793          	addi	a5,a5,-176 # 0 <register_fini-0x100b0>
   100b8:	c791                	beqz	a5,100c4 <register_fini+0x14>
   100ba:	00000517          	auipc	a0,0x0
   100be:	31650513          	addi	a0,a0,790 # 103d0 <__libc_fini_array>
   100c2:	a4cd                	j	103a4 <atexit>
   100c4:	8082                	ret

00000000000100c6 <_start>:
   100c6:	0000f197          	auipc	gp,0xf
   100ca:	d0218193          	addi	gp,gp,-766 # 1edc8 <__global_pointer$>
   100ce:	77018513          	addi	a0,gp,1904 # 1f538 <_edata>
   100d2:	0000f617          	auipc	a2,0xf
   100d6:	4f660613          	addi	a2,a2,1270 # 1f5c8 <__BSS_END__>
   100da:	8e09                	sub	a2,a2,a0
   100dc:	4581                	li	a1,0
   100de:	394000ef          	jal	ra,10472 <memset>
   100e2:	00000517          	auipc	a0,0x0
   100e6:	2ee50513          	addi	a0,a0,750 # 103d0 <__libc_fini_array>
   100ea:	2ba000ef          	jal	ra,103a4 <atexit>
   100ee:	31a000ef          	jal	ra,10408 <__libc_init_array>
   100f2:	4502                	lw	a0,0(sp)
   100f4:	002c                	addi	a1,sp,8
   100f6:	4601                	li	a2,0
   100f8:	26a000ef          	jal	ra,10362 <main>
   100fc:	ac55                	j	103b0 <exit>

00000000000100fe <__do_global_dtors_aux>:
   100fe:	7981c783          	lbu	a5,1944(gp) # 1f560 <completed.5470>
   10102:	eb95                	bnez	a5,10136 <__do_global_dtors_aux+0x38>
   10104:	ffff0797          	auipc	a5,0xffff0
   10108:	efc78793          	addi	a5,a5,-260 # 0 <register_fini-0x100b0>
   1010c:	c38d                	beqz	a5,1012e <__do_global_dtors_aux+0x30>
   1010e:	1141                	addi	sp,sp,-16
   10110:	0000e517          	auipc	a0,0xe
   10114:	2b050513          	addi	a0,a0,688 # 1e3c0 <__FRAME_END__>
   10118:	e406                	sd	ra,8(sp)
   1011a:	00000097          	auipc	ra,0x0
   1011e:	000000e7          	jalr	zero # 0 <register_fini-0x100b0>
   10122:	60a2                	ld	ra,8(sp)
   10124:	4785                	li	a5,1
   10126:	78f18c23          	sb	a5,1944(gp) # 1f560 <completed.5470>
   1012a:	0141                	addi	sp,sp,16
   1012c:	8082                	ret
   1012e:	4785                	li	a5,1
   10130:	78f18c23          	sb	a5,1944(gp) # 1f560 <completed.5470>
   10134:	8082                	ret
   10136:	8082                	ret

0000000000010138 <frame_dummy>:
   10138:	ffff0797          	auipc	a5,0xffff0
   1013c:	ec878793          	addi	a5,a5,-312 # 0 <register_fini-0x100b0>
   10140:	cb99                	beqz	a5,10156 <frame_dummy+0x1e>
   10142:	7a018593          	addi	a1,gp,1952 # 1f568 <object.5475>
   10146:	0000e517          	auipc	a0,0xe
   1014a:	27a50513          	addi	a0,a0,634 # 1e3c0 <__FRAME_END__>
   1014e:	00000317          	auipc	t1,0x0
   10152:	00000067          	jr	zero # 0 <register_fini-0x100b0>
   10156:	8082                	ret

0000000000010158 <fnv1a64>:
   10158:	7139                	addi	sp,sp,-64
   1015a:	fc22                	sd	s0,56(sp)
   1015c:	0080                	addi	s0,sp,64
   1015e:	fca43423          	sd	a0,-56(s0)
   10162:	67f1                	lui	a5,0x1c
   10164:	6b87b783          	ld	a5,1720(a5) # 1c6b8 <__clzdi2+0x1cc>
   10168:	fcf43c23          	sd	a5,-40(s0)
   1016c:	4785                	li	a5,1
   1016e:	17a2                	slli	a5,a5,0x28
   10170:	1b378793          	addi	a5,a5,435
   10174:	fcf43823          	sd	a5,-48(s0)
   10178:	fd843783          	ld	a5,-40(s0)
   1017c:	fef43423          	sd	a5,-24(s0)
   10180:	fc843783          	ld	a5,-56(s0)
   10184:	fef43023          	sd	a5,-32(s0)
   10188:	a805                	j	101b8 <fnv1a64+0x60>
   1018a:	fe043783          	ld	a5,-32(s0)
   1018e:	0007c783          	lbu	a5,0(a5)
   10192:	873e                	mv	a4,a5
   10194:	fe843783          	ld	a5,-24(s0)
   10198:	8fb9                	xor	a5,a5,a4
   1019a:	fef43423          	sd	a5,-24(s0)
   1019e:	fe843703          	ld	a4,-24(s0)
   101a2:	fd043783          	ld	a5,-48(s0)
   101a6:	02f707b3          	mul	a5,a4,a5
   101aa:	fef43423          	sd	a5,-24(s0)
   101ae:	fe043783          	ld	a5,-32(s0)
   101b2:	0785                	addi	a5,a5,1
   101b4:	fef43023          	sd	a5,-32(s0)
   101b8:	fe043783          	ld	a5,-32(s0)
   101bc:	0007c783          	lbu	a5,0(a5)
   101c0:	f7e9                	bnez	a5,1018a <fnv1a64+0x32>
   101c2:	fe843783          	ld	a5,-24(s0)
   101c6:	853e                	mv	a0,a5
   101c8:	7462                	ld	s0,56(sp)
   101ca:	6121                	addi	sp,sp,64
   101cc:	8082                	ret

00000000000101ce <uniq_print_header>:
   101ce:	b5010113          	addi	sp,sp,-1200
   101d2:	4a113423          	sd	ra,1192(sp)
   101d6:	4a813023          	sd	s0,1184(sp)
   101da:	4b010413          	addi	s0,sp,1200
   101de:	b6a43423          	sd	a0,-1176(s0)
   101e2:	4501                	li	a0,0
   101e4:	18c020ef          	jal	ra,12370 <time>
   101e8:	fea43423          	sd	a0,-24(s0)
   101ec:	dd040513          	addi	a0,s0,-560
   101f0:	b6843783          	ld	a5,-1176(s0)
   101f4:	e43e                	sd	a5,8(sp)
   101f6:	67f1                	lui	a5,0x1c
   101f8:	57878793          	addi	a5,a5,1400 # 1c578 <__clzdi2+0x8c>
   101fc:	e03e                	sd	a5,0(sp)
   101fe:	4881                	li	a7,0
   10200:	67f1                	lui	a5,0x1c
   10202:	52078813          	addi	a6,a5,1312 # 1c520 <__clzdi2+0x34>
   10206:	67f1                	lui	a5,0x1c
   10208:	53078793          	addi	a5,a5,1328 # 1c530 <__clzdi2+0x44>
   1020c:	6771                	lui	a4,0x1c
   1020e:	54070713          	addi	a4,a4,1344 # 1c540 <__clzdi2+0x54>
   10212:	66f1                	lui	a3,0x1c
   10214:	55068693          	addi	a3,a3,1360 # 1c550 <__clzdi2+0x64>
   10218:	6671                	lui	a2,0x1c
   1021a:	56060613          	addi	a2,a2,1376 # 1c560 <__clzdi2+0x74>
   1021e:	20000593          	li	a1,512
   10222:	470000ef          	jal	ra,10692 <snprintf>
   10226:	87aa                	mv	a5,a0
   10228:	fef42223          	sw	a5,-28(s0)
   1022c:	dd040793          	addi	a5,s0,-560
   10230:	853e                	mv	a0,a5
   10232:	f27ff0ef          	jal	ra,10158 <fnv1a64>
   10236:	fca43c23          	sd	a0,-40(s0)
   1023a:	dd040793          	addi	a5,s0,-560
   1023e:	b7840513          	addi	a0,s0,-1160
   10242:	fe843703          	ld	a4,-24(s0)
   10246:	86be                	mv	a3,a5
   10248:	67f1                	lui	a5,0x1c
   1024a:	58078613          	addi	a2,a5,1408 # 1c580 <__clzdi2+0x94>
   1024e:	25800593          	li	a1,600
   10252:	440000ef          	jal	ra,10692 <snprintf>
   10256:	b7840793          	addi	a5,s0,-1160
   1025a:	853e                	mv	a0,a5
   1025c:	efdff0ef          	jal	ra,10158 <fnv1a64>
   10260:	fca43823          	sd	a0,-48(s0)
   10264:	67f1                	lui	a5,0x1c
   10266:	59878513          	addi	a0,a5,1432 # 1c598 <__clzdi2+0xac>
   1026a:	388000ef          	jal	ra,105f2 <puts>
   1026e:	67f1                	lui	a5,0x1c
   10270:	55078593          	addi	a1,a5,1360 # 1c550 <__clzdi2+0x64>
   10274:	67f1                	lui	a5,0x1c
   10276:	5b878513          	addi	a0,a5,1464 # 1c5b8 <__clzdi2+0xcc>
   1027a:	2c6000ef          	jal	ra,10540 <printf>
   1027e:	67f1                	lui	a5,0x1c
   10280:	54078593          	addi	a1,a5,1344 # 1c540 <__clzdi2+0x54>
   10284:	67f1                	lui	a5,0x1c
   10286:	5c878513          	addi	a0,a5,1480 # 1c5c8 <__clzdi2+0xdc>
   1028a:	2b6000ef          	jal	ra,10540 <printf>
   1028e:	67f1                	lui	a5,0x1c
   10290:	53078593          	addi	a1,a5,1328 # 1c530 <__clzdi2+0x44>
   10294:	67f1                	lui	a5,0x1c
   10296:	5d878513          	addi	a0,a5,1496 # 1c5d8 <__clzdi2+0xec>
   1029a:	2a6000ef          	jal	ra,10540 <printf>
   1029e:	67f1                	lui	a5,0x1c
   102a0:	52078593          	addi	a1,a5,1312 # 1c520 <__clzdi2+0x34>
   102a4:	67f1                	lui	a5,0x1c
   102a6:	5e878513          	addi	a0,a5,1512 # 1c5e8 <__clzdi2+0xfc>
   102aa:	296000ef          	jal	ra,10540 <printf>
   102ae:	4581                	li	a1,0
   102b0:	67f1                	lui	a5,0x1c
   102b2:	5f878513          	addi	a0,a5,1528 # 1c5f8 <__clzdi2+0x10c>
   102b6:	28a000ef          	jal	ra,10540 <printf>
   102ba:	67f1                	lui	a5,0x1c
   102bc:	57878593          	addi	a1,a5,1400 # 1c578 <__clzdi2+0x8c>
   102c0:	67f1                	lui	a5,0x1c
   102c2:	61078513          	addi	a0,a5,1552 # 1c610 <__clzdi2+0x124>
   102c6:	27a000ef          	jal	ra,10540 <printf>
   102ca:	04000593          	li	a1,64
   102ce:	67f1                	lui	a5,0x1c
   102d0:	62078513          	addi	a0,a5,1568 # 1c620 <__clzdi2+0x134>
   102d4:	26c000ef          	jal	ra,10540 <printf>
   102d8:	b6843583          	ld	a1,-1176(s0)
   102dc:	67f1                	lui	a5,0x1c
   102de:	63878513          	addi	a0,a5,1592 # 1c638 <__clzdi2+0x14c>
   102e2:	25e000ef          	jal	ra,10540 <printf>
   102e6:	fd843583          	ld	a1,-40(s0)
   102ea:	67f1                	lui	a5,0x1c
   102ec:	64878513          	addi	a0,a5,1608 # 1c648 <__clzdi2+0x15c>
   102f0:	250000ef          	jal	ra,10540 <printf>
   102f4:	fd043583          	ld	a1,-48(s0)
   102f8:	67f1                	lui	a5,0x1c
   102fa:	66078513          	addi	a0,a5,1632 # 1c660 <__clzdi2+0x174>
   102fe:	242000ef          	jal	ra,10540 <printf>
   10302:	67f1                	lui	a5,0x1c
   10304:	67878513          	addi	a0,a5,1656 # 1c678 <__clzdi2+0x18c>
   10308:	2ea000ef          	jal	ra,105f2 <puts>
   1030c:	0001                	nop
   1030e:	4a813083          	ld	ra,1192(sp)
   10312:	4a013403          	ld	s0,1184(sp)
   10316:	4b010113          	addi	sp,sp,1200
   1031a:	8082                	ret

000000000001031c <fact>:
   1031c:	7179                	addi	sp,sp,-48
   1031e:	f406                	sd	ra,40(sp)
   10320:	f022                	sd	s0,32(sp)
   10322:	ec26                	sd	s1,24(sp)
   10324:	1800                	addi	s0,sp,48
   10326:	87aa                	mv	a5,a0
   10328:	fcf42e23          	sw	a5,-36(s0)
   1032c:	fdc42783          	lw	a5,-36(s0)
   10330:	0007871b          	sext.w	a4,a5
   10334:	4785                	li	a5,1
   10336:	00e7ff63          	bgeu	a5,a4,10354 <fact+0x38>
   1033a:	fdc46483          	lwu	s1,-36(s0)
   1033e:	fdc42783          	lw	a5,-36(s0)
   10342:	37fd                	addiw	a5,a5,-1
   10344:	2781                	sext.w	a5,a5
   10346:	853e                	mv	a0,a5
   10348:	fd5ff0ef          	jal	ra,1031c <fact>
   1034c:	87aa                	mv	a5,a0
   1034e:	02f487b3          	mul	a5,s1,a5
   10352:	a011                	j	10356 <fact+0x3a>
   10354:	4785                	li	a5,1
   10356:	853e                	mv	a0,a5
   10358:	70a2                	ld	ra,40(sp)
   1035a:	7402                	ld	s0,32(sp)
   1035c:	64e2                	ld	s1,24(sp)
   1035e:	6145                	addi	sp,sp,48
   10360:	8082                	ret

0000000000010362 <main>:
   10362:	1101                	addi	sp,sp,-32
   10364:	ec06                	sd	ra,24(sp)
   10366:	e822                	sd	s0,16(sp)
   10368:	1000                	addi	s0,sp,32
   1036a:	67f1                	lui	a5,0x1c
   1036c:	69878513          	addi	a0,a5,1688 # 1c698 <__clzdi2+0x1ac>
   10370:	e5fff0ef          	jal	ra,101ce <uniq_print_header>
   10374:	47b1                	li	a5,12
   10376:	fef42623          	sw	a5,-20(s0)
   1037a:	fec42783          	lw	a5,-20(s0)
   1037e:	853e                	mv	a0,a5
   10380:	f9dff0ef          	jal	ra,1031c <fact>
   10384:	872a                	mv	a4,a0
   10386:	fec42783          	lw	a5,-20(s0)
   1038a:	863a                	mv	a2,a4
   1038c:	85be                	mv	a1,a5
   1038e:	67f1                	lui	a5,0x1c
   10390:	6a878513          	addi	a0,a5,1704 # 1c6a8 <__clzdi2+0x1bc>
   10394:	1ac000ef          	jal	ra,10540 <printf>
   10398:	4781                	li	a5,0
   1039a:	853e                	mv	a0,a5
   1039c:	60e2                	ld	ra,24(sp)
   1039e:	6442                	ld	s0,16(sp)
   103a0:	6105                	addi	sp,sp,32
   103a2:	8082                	ret

00000000000103a4 <atexit>:
   103a4:	85aa                	mv	a1,a0
   103a6:	4681                	li	a3,0
   103a8:	4601                	li	a2,0
   103aa:	4501                	li	a0,0
   103ac:	5870306f          	j	14132 <__register_exitproc>

00000000000103b0 <exit>:
   103b0:	1141                	addi	sp,sp,-16
   103b2:	4581                	li	a1,0
   103b4:	e022                	sd	s0,0(sp)
   103b6:	e406                	sd	ra,8(sp)
   103b8:	842a                	mv	s0,a0
   103ba:	5f1030ef          	jal	ra,141aa <__call_exitprocs>
   103be:	74818793          	addi	a5,gp,1864 # 1f510 <_global_impure_ptr>
   103c2:	6388                	ld	a0,0(a5)
   103c4:	6d3c                	ld	a5,88(a0)
   103c6:	c391                	beqz	a5,103ca <exit+0x1a>
   103c8:	9782                	jalr	a5
   103ca:	8522                	mv	a0,s0
   103cc:	2fd0a0ef          	jal	ra,1aec8 <_exit>

00000000000103d0 <__libc_fini_array>:
   103d0:	1101                	addi	sp,sp,-32
   103d2:	e822                	sd	s0,16(sp)
   103d4:	0000e797          	auipc	a5,0xe
   103d8:	00c78793          	addi	a5,a5,12 # 1e3e0 <__fini_array_end>
   103dc:	0000e417          	auipc	s0,0xe
   103e0:	ffc40413          	addi	s0,s0,-4 # 1e3d8 <__init_array_end>
   103e4:	8f81                	sub	a5,a5,s0
   103e6:	e426                	sd	s1,8(sp)
   103e8:	ec06                	sd	ra,24(sp)
   103ea:	4037d493          	srai	s1,a5,0x3
   103ee:	c881                	beqz	s1,103fe <__libc_fini_array+0x2e>
   103f0:	17e1                	addi	a5,a5,-8
   103f2:	943e                	add	s0,s0,a5
   103f4:	601c                	ld	a5,0(s0)
   103f6:	14fd                	addi	s1,s1,-1
   103f8:	1461                	addi	s0,s0,-8
   103fa:	9782                	jalr	a5
   103fc:	fce5                	bnez	s1,103f4 <__libc_fini_array+0x24>
   103fe:	60e2                	ld	ra,24(sp)
   10400:	6442                	ld	s0,16(sp)
   10402:	64a2                	ld	s1,8(sp)
   10404:	6105                	addi	sp,sp,32
   10406:	8082                	ret

0000000000010408 <__libc_init_array>:
   10408:	1101                	addi	sp,sp,-32
   1040a:	e822                	sd	s0,16(sp)
   1040c:	e04a                	sd	s2,0(sp)
   1040e:	0000e417          	auipc	s0,0xe
   10412:	fb640413          	addi	s0,s0,-74 # 1e3c4 <__preinit_array_end>
   10416:	0000e917          	auipc	s2,0xe
   1041a:	fae90913          	addi	s2,s2,-82 # 1e3c4 <__preinit_array_end>
   1041e:	40890933          	sub	s2,s2,s0
   10422:	ec06                	sd	ra,24(sp)
   10424:	e426                	sd	s1,8(sp)
   10426:	40395913          	srai	s2,s2,0x3
   1042a:	00090963          	beqz	s2,1043c <__libc_init_array+0x34>
   1042e:	4481                	li	s1,0
   10430:	601c                	ld	a5,0(s0)
   10432:	0485                	addi	s1,s1,1
   10434:	0421                	addi	s0,s0,8
   10436:	9782                	jalr	a5
   10438:	fe991ce3          	bne	s2,s1,10430 <__libc_init_array+0x28>
   1043c:	0000e417          	auipc	s0,0xe
   10440:	f8c40413          	addi	s0,s0,-116 # 1e3c8 <__init_array_start>
   10444:	0000e917          	auipc	s2,0xe
   10448:	f9490913          	addi	s2,s2,-108 # 1e3d8 <__init_array_end>
   1044c:	40890933          	sub	s2,s2,s0
   10450:	40395913          	srai	s2,s2,0x3
   10454:	00090963          	beqz	s2,10466 <__libc_init_array+0x5e>
   10458:	4481                	li	s1,0
   1045a:	601c                	ld	a5,0(s0)
   1045c:	0485                	addi	s1,s1,1
   1045e:	0421                	addi	s0,s0,8
   10460:	9782                	jalr	a5
   10462:	fe991ce3          	bne	s2,s1,1045a <__libc_init_array+0x52>
   10466:	60e2                	ld	ra,24(sp)
   10468:	6442                	ld	s0,16(sp)
   1046a:	64a2                	ld	s1,8(sp)
   1046c:	6902                	ld	s2,0(sp)
   1046e:	6105                	addi	sp,sp,32
   10470:	8082                	ret

0000000000010472 <memset>:
   10472:	433d                	li	t1,15
   10474:	872a                	mv	a4,a0
   10476:	02c37163          	bgeu	t1,a2,10498 <memset+0x26>
   1047a:	00f77793          	andi	a5,a4,15
   1047e:	e3c1                	bnez	a5,104fe <memset+0x8c>
   10480:	e1bd                	bnez	a1,104e6 <memset+0x74>
   10482:	ff067693          	andi	a3,a2,-16
   10486:	8a3d                	andi	a2,a2,15
   10488:	96ba                	add	a3,a3,a4
   1048a:	e30c                	sd	a1,0(a4)
   1048c:	e70c                	sd	a1,8(a4)
   1048e:	0741                	addi	a4,a4,16
   10490:	fed76de3          	bltu	a4,a3,1048a <memset+0x18>
   10494:	e211                	bnez	a2,10498 <memset+0x26>
   10496:	8082                	ret
   10498:	40c306b3          	sub	a3,t1,a2
   1049c:	068a                	slli	a3,a3,0x2
   1049e:	00000297          	auipc	t0,0x0
   104a2:	9696                	add	a3,a3,t0
   104a4:	00a68067          	jr	10(a3)
   104a8:	00b70723          	sb	a1,14(a4)
   104ac:	00b706a3          	sb	a1,13(a4)
   104b0:	00b70623          	sb	a1,12(a4)
   104b4:	00b705a3          	sb	a1,11(a4)
   104b8:	00b70523          	sb	a1,10(a4)
   104bc:	00b704a3          	sb	a1,9(a4)
   104c0:	00b70423          	sb	a1,8(a4)
   104c4:	00b703a3          	sb	a1,7(a4)
   104c8:	00b70323          	sb	a1,6(a4)
   104cc:	00b702a3          	sb	a1,5(a4)
   104d0:	00b70223          	sb	a1,4(a4)
   104d4:	00b701a3          	sb	a1,3(a4)
   104d8:	00b70123          	sb	a1,2(a4)
   104dc:	00b700a3          	sb	a1,1(a4)
   104e0:	00b70023          	sb	a1,0(a4)
   104e4:	8082                	ret
   104e6:	0ff5f593          	andi	a1,a1,255
   104ea:	00859693          	slli	a3,a1,0x8
   104ee:	8dd5                	or	a1,a1,a3
   104f0:	01059693          	slli	a3,a1,0x10
   104f4:	8dd5                	or	a1,a1,a3
   104f6:	02059693          	slli	a3,a1,0x20
   104fa:	8dd5                	or	a1,a1,a3
   104fc:	b759                	j	10482 <memset+0x10>
   104fe:	00279693          	slli	a3,a5,0x2
   10502:	00000297          	auipc	t0,0x0
   10506:	9696                	add	a3,a3,t0
   10508:	8286                	mv	t0,ra
   1050a:	fa2680e7          	jalr	-94(a3)
   1050e:	8096                	mv	ra,t0
   10510:	17c1                	addi	a5,a5,-16
   10512:	8f1d                	sub	a4,a4,a5
   10514:	963e                	add	a2,a2,a5
   10516:	f8c371e3          	bgeu	t1,a2,10498 <memset+0x26>
   1051a:	b79d                	j	10480 <memset+0xe>

000000000001051c <_printf_r>:
   1051c:	715d                	addi	sp,sp,-80
   1051e:	f032                	sd	a2,32(sp)
   10520:	f436                	sd	a3,40(sp)
   10522:	fc3e                	sd	a5,56(sp)
   10524:	f83a                	sd	a4,48(sp)
   10526:	e0c2                	sd	a6,64(sp)
   10528:	e4c6                	sd	a7,72(sp)
   1052a:	862e                	mv	a2,a1
   1052c:	690c                	ld	a1,16(a0)
   1052e:	101c                	addi	a5,sp,32
   10530:	86be                	mv	a3,a5
   10532:	ec06                	sd	ra,24(sp)
   10534:	e43e                	sd	a5,8(sp)
   10536:	667010ef          	jal	ra,1239c <_vfprintf_r>
   1053a:	60e2                	ld	ra,24(sp)
   1053c:	6161                	addi	sp,sp,80
   1053e:	8082                	ret

0000000000010540 <printf>:
   10540:	75818313          	addi	t1,gp,1880 # 1f520 <_impure_ptr>
   10544:	00033303          	ld	t1,0(t1) # 1014e <frame_dummy+0x16>
   10548:	711d                	addi	sp,sp,-96
   1054a:	f832                	sd	a2,48(sp)
   1054c:	fc36                	sd	a3,56(sp)
   1054e:	e4be                	sd	a5,72(sp)
   10550:	f42e                	sd	a1,40(sp)
   10552:	e0ba                	sd	a4,64(sp)
   10554:	e8c2                	sd	a6,80(sp)
   10556:	ecc6                	sd	a7,88(sp)
   10558:	01033583          	ld	a1,16(t1)
   1055c:	103c                	addi	a5,sp,40
   1055e:	862a                	mv	a2,a0
   10560:	86be                	mv	a3,a5
   10562:	851a                	mv	a0,t1
   10564:	ec06                	sd	ra,24(sp)
   10566:	e43e                	sd	a5,8(sp)
   10568:	635010ef          	jal	ra,1239c <_vfprintf_r>
   1056c:	60e2                	ld	ra,24(sp)
   1056e:	6125                	addi	sp,sp,96
   10570:	8082                	ret

0000000000010572 <_puts_r>:
   10572:	7159                	addi	sp,sp,-112
   10574:	f0a2                	sd	s0,96(sp)
   10576:	842a                	mv	s0,a0
   10578:	852e                	mv	a0,a1
   1057a:	eca6                	sd	s1,88(sp)
   1057c:	f486                	sd	ra,104(sp)
   1057e:	84ae                	mv	s1,a1
   10580:	1b0000ef          	jal	ra,10730 <strlen>
   10584:	00150713          	addi	a4,a0,1
   10588:	0000c697          	auipc	a3,0xc
   1058c:	13868693          	addi	a3,a3,312 # 1c6c0 <__clzdi2+0x1d4>
   10590:	f43a                	sd	a4,40(sp)
   10592:	483c                	lw	a5,80(s0)
   10594:	1818                	addi	a4,sp,48
   10596:	e0b6                	sd	a3,64(sp)
   10598:	ec3a                	sd	a4,24(sp)
   1059a:	4685                	li	a3,1
   1059c:	4709                	li	a4,2
   1059e:	f826                	sd	s1,48(sp)
   105a0:	fc2a                	sd	a0,56(sp)
   105a2:	e4b6                	sd	a3,72(sp)
   105a4:	d03a                	sw	a4,32(sp)
   105a6:	680c                	ld	a1,16(s0)
   105a8:	cf8d                	beqz	a5,105e2 <_puts_r+0x70>
   105aa:	01059783          	lh	a5,16(a1)
   105ae:	03279713          	slli	a4,a5,0x32
   105b2:	00074d63          	bltz	a4,105cc <_puts_r+0x5a>
   105b6:	0ac5a703          	lw	a4,172(a1)
   105ba:	6689                	lui	a3,0x2
   105bc:	8fd5                	or	a5,a5,a3
   105be:	76f9                	lui	a3,0xffffe
   105c0:	16fd                	addi	a3,a3,-1
   105c2:	8f75                	and	a4,a4,a3
   105c4:	00f59823          	sh	a5,16(a1)
   105c8:	0ae5a623          	sw	a4,172(a1)
   105cc:	0830                	addi	a2,sp,24
   105ce:	8522                	mv	a0,s0
   105d0:	448040ef          	jal	ra,14a18 <__sfvwrite_r>
   105d4:	ed09                	bnez	a0,105ee <_puts_r+0x7c>
   105d6:	4529                	li	a0,10
   105d8:	70a6                	ld	ra,104(sp)
   105da:	7406                	ld	s0,96(sp)
   105dc:	64e6                	ld	s1,88(sp)
   105de:	6165                	addi	sp,sp,112
   105e0:	8082                	ret
   105e2:	8522                	mv	a0,s0
   105e4:	e42e                	sd	a1,8(sp)
   105e6:	0c0040ef          	jal	ra,146a6 <__sinit>
   105ea:	65a2                	ld	a1,8(sp)
   105ec:	bf7d                	j	105aa <_puts_r+0x38>
   105ee:	557d                	li	a0,-1
   105f0:	b7e5                	j	105d8 <_puts_r+0x66>

00000000000105f2 <puts>:
   105f2:	75818793          	addi	a5,gp,1880 # 1f520 <_impure_ptr>
   105f6:	85aa                	mv	a1,a0
   105f8:	6388                	ld	a0,0(a5)
   105fa:	bfa5                	j	10572 <_puts_r>

00000000000105fc <_snprintf_r>:
   105fc:	7111                	addi	sp,sp,-256
   105fe:	f5be                	sd	a5,232(sp)
   10600:	800007b7          	lui	a5,0x80000
   10604:	e9a2                	sd	s0,208(sp)
   10606:	ed86                	sd	ra,216(sp)
   10608:	e5a6                	sd	s1,200(sp)
   1060a:	f1ba                	sd	a4,224(sp)
   1060c:	f9c2                	sd	a6,240(sp)
   1060e:	fdc6                	sd	a7,248(sp)
   10610:	fff7c793          	not	a5,a5
   10614:	842a                	mv	s0,a0
   10616:	06c7e963          	bltu	a5,a2,10688 <_snprintf_r+0x8c>
   1061a:	20800793          	li	a5,520
   1061e:	8332                	mv	t1,a2
   10620:	02f11023          	sh	a5,32(sp)
   10624:	e82e                	sd	a1,16(sp)
   10626:	f42e                	sd	a1,40(sp)
   10628:	8636                	mv	a2,a3
   1062a:	119c                	addi	a5,sp,224
   1062c:	02030a63          	beqz	t1,10660 <_snprintf_r+0x64>
   10630:	337d                	addiw	t1,t1,-1
   10632:	54fd                	li	s1,-1
   10634:	86be                	mv	a3,a5
   10636:	080c                	addi	a1,sp,16
   10638:	ce1a                	sw	t1,28(sp)
   1063a:	d81a                	sw	t1,48(sp)
   1063c:	02911123          	sh	s1,34(sp)
   10640:	e43e                	sd	a5,8(sp)
   10642:	186000ef          	jal	ra,107c8 <_svfprintf_r>
   10646:	00955563          	bge	a0,s1,10650 <_snprintf_r+0x54>
   1064a:	08b00793          	li	a5,139
   1064e:	c01c                	sw	a5,0(s0)
   10650:	67c2                	ld	a5,16(sp)
   10652:	00078023          	sb	zero,0(a5) # ffffffff80000000 <__BSS_END__+0xffffffff7ffe0a38>
   10656:	60ee                	ld	ra,216(sp)
   10658:	644e                	ld	s0,208(sp)
   1065a:	64ae                	ld	s1,200(sp)
   1065c:	6111                	addi	sp,sp,256
   1065e:	8082                	ret
   10660:	54fd                	li	s1,-1
   10662:	86be                	mv	a3,a5
   10664:	080c                	addi	a1,sp,16
   10666:	ce02                	sw	zero,28(sp)
   10668:	d802                	sw	zero,48(sp)
   1066a:	02911123          	sh	s1,34(sp)
   1066e:	e43e                	sd	a5,8(sp)
   10670:	158000ef          	jal	ra,107c8 <_svfprintf_r>
   10674:	00955563          	bge	a0,s1,1067e <_snprintf_r+0x82>
   10678:	08b00793          	li	a5,139
   1067c:	c01c                	sw	a5,0(s0)
   1067e:	60ee                	ld	ra,216(sp)
   10680:	644e                	ld	s0,208(sp)
   10682:	64ae                	ld	s1,200(sp)
   10684:	6111                	addi	sp,sp,256
   10686:	8082                	ret
   10688:	08b00793          	li	a5,139
   1068c:	c11c                	sw	a5,0(a0)
   1068e:	557d                	li	a0,-1
   10690:	b7fd                	j	1067e <_snprintf_r+0x82>

0000000000010692 <snprintf>:
   10692:	716d                	addi	sp,sp,-272
   10694:	fdbe                	sd	a5,248(sp)
   10696:	800007b7          	lui	a5,0x80000
   1069a:	f9ba                	sd	a4,240(sp)
   1069c:	e9a2                	sd	s0,208(sp)
   1069e:	f5b6                	sd	a3,232(sp)
   106a0:	e242                	sd	a6,256(sp)
   106a2:	e646                	sd	a7,264(sp)
   106a4:	75818713          	addi	a4,gp,1880 # 1f520 <_impure_ptr>
   106a8:	ed86                	sd	ra,216(sp)
   106aa:	e5a6                	sd	s1,200(sp)
   106ac:	fff7c793          	not	a5,a5
   106b0:	6300                	ld	s0,0(a4)
   106b2:	06b7ea63          	bltu	a5,a1,10726 <snprintf+0x94>
   106b6:	20800793          	li	a5,520
   106ba:	02f11023          	sh	a5,32(sp)
   106be:	e82a                	sd	a0,16(sp)
   106c0:	f42a                	sd	a0,40(sp)
   106c2:	cd85                	beqz	a1,106fa <snprintf+0x68>
   106c4:	11b8                	addi	a4,sp,232
   106c6:	fff5879b          	addiw	a5,a1,-1
   106ca:	54fd                	li	s1,-1
   106cc:	86ba                	mv	a3,a4
   106ce:	080c                	addi	a1,sp,16
   106d0:	8522                	mv	a0,s0
   106d2:	ce3e                	sw	a5,28(sp)
   106d4:	d83e                	sw	a5,48(sp)
   106d6:	02911123          	sh	s1,34(sp)
   106da:	e43a                	sd	a4,8(sp)
   106dc:	0ec000ef          	jal	ra,107c8 <_svfprintf_r>
   106e0:	00955563          	bge	a0,s1,106ea <snprintf+0x58>
   106e4:	08b00793          	li	a5,139
   106e8:	c01c                	sw	a5,0(s0)
   106ea:	67c2                	ld	a5,16(sp)
   106ec:	00078023          	sb	zero,0(a5) # ffffffff80000000 <__BSS_END__+0xffffffff7ffe0a38>
   106f0:	60ee                	ld	ra,216(sp)
   106f2:	644e                	ld	s0,208(sp)
   106f4:	64ae                	ld	s1,200(sp)
   106f6:	6151                	addi	sp,sp,272
   106f8:	8082                	ret
   106fa:	11bc                	addi	a5,sp,232
   106fc:	54fd                	li	s1,-1
   106fe:	86be                	mv	a3,a5
   10700:	080c                	addi	a1,sp,16
   10702:	8522                	mv	a0,s0
   10704:	ce02                	sw	zero,28(sp)
   10706:	d802                	sw	zero,48(sp)
   10708:	02911123          	sh	s1,34(sp)
   1070c:	e43e                	sd	a5,8(sp)
   1070e:	0ba000ef          	jal	ra,107c8 <_svfprintf_r>
   10712:	00955563          	bge	a0,s1,1071c <snprintf+0x8a>
   10716:	08b00793          	li	a5,139
   1071a:	c01c                	sw	a5,0(s0)
   1071c:	60ee                	ld	ra,216(sp)
   1071e:	644e                	ld	s0,208(sp)
   10720:	64ae                	ld	s1,200(sp)
   10722:	6151                	addi	sp,sp,272
   10724:	8082                	ret
   10726:	08b00793          	li	a5,139
   1072a:	c01c                	sw	a5,0(s0)
   1072c:	557d                	li	a0,-1
   1072e:	b7fd                	j	1071c <snprintf+0x8a>

0000000000010730 <strlen>:
   10730:	00757793          	andi	a5,a0,7
   10734:	872a                	mv	a4,a0
   10736:	efa9                	bnez	a5,10790 <strlen+0x60>
   10738:	0000f797          	auipc	a5,0xf
   1073c:	da878793          	addi	a5,a5,-600 # 1f4e0 <__SDATA_BEGIN__>
   10740:	6394                	ld	a3,0(a5)
   10742:	55fd                	li	a1,-1
   10744:	0721                	addi	a4,a4,8
   10746:	ff873603          	ld	a2,-8(a4)
   1074a:	00d677b3          	and	a5,a2,a3
   1074e:	97b6                	add	a5,a5,a3
   10750:	8fd1                	or	a5,a5,a2
   10752:	8fd5                	or	a5,a5,a3
   10754:	feb788e3          	beq	a5,a1,10744 <strlen+0x14>
   10758:	ff874783          	lbu	a5,-8(a4)
   1075c:	40a706b3          	sub	a3,a4,a0
   10760:	c7a9                	beqz	a5,107aa <strlen+0x7a>
   10762:	ff974783          	lbu	a5,-7(a4)
   10766:	cf9d                	beqz	a5,107a4 <strlen+0x74>
   10768:	ffa74783          	lbu	a5,-6(a4)
   1076c:	c7a9                	beqz	a5,107b6 <strlen+0x86>
   1076e:	ffb74783          	lbu	a5,-5(a4)
   10772:	cf9d                	beqz	a5,107b0 <strlen+0x80>
   10774:	ffc74603          	lbu	a2,-4(a4)
   10778:	ffd74583          	lbu	a1,-3(a4)
   1077c:	ffe74783          	lbu	a5,-2(a4)
   10780:	ce15                	beqz	a2,107bc <strlen+0x8c>
   10782:	c1a1                	beqz	a1,107c2 <strlen+0x92>
   10784:	00f03533          	snez	a0,a5
   10788:	9536                	add	a0,a0,a3
   1078a:	1579                	addi	a0,a0,-2
   1078c:	8082                	ret
   1078e:	d6cd                	beqz	a3,10738 <strlen+0x8>
   10790:	00074783          	lbu	a5,0(a4)
   10794:	0705                	addi	a4,a4,1
   10796:	00777693          	andi	a3,a4,7
   1079a:	fbf5                	bnez	a5,1078e <strlen+0x5e>
   1079c:	8f09                	sub	a4,a4,a0
   1079e:	fff70513          	addi	a0,a4,-1
   107a2:	8082                	ret
   107a4:	ff968513          	addi	a0,a3,-7 # ffffffffffffdff9 <__BSS_END__+0xfffffffffffdea31>
   107a8:	8082                	ret
   107aa:	ff868513          	addi	a0,a3,-8
   107ae:	8082                	ret
   107b0:	ffb68513          	addi	a0,a3,-5
   107b4:	8082                	ret
   107b6:	ffa68513          	addi	a0,a3,-6
   107ba:	8082                	ret
   107bc:	ffc68513          	addi	a0,a3,-4
   107c0:	8082                	ret
   107c2:	ffd68513          	addi	a0,a3,-3
   107c6:	8082                	ret

00000000000107c8 <_svfprintf_r>:
   107c8:	d8010113          	addi	sp,sp,-640
   107cc:	26113c23          	sd	ra,632(sp)
   107d0:	25413823          	sd	s4,592(sp)
   107d4:	25613023          	sd	s6,576(sp)
   107d8:	23a13023          	sd	s10,544(sp)
   107dc:	8b2e                	mv	s6,a1
   107de:	8d32                	mv	s10,a2
   107e0:	e836                	sd	a3,16(sp)
   107e2:	26813823          	sd	s0,624(sp)
   107e6:	26913423          	sd	s1,616(sp)
   107ea:	27213023          	sd	s2,608(sp)
   107ee:	25313c23          	sd	s3,600(sp)
   107f2:	25513423          	sd	s5,584(sp)
   107f6:	23713c23          	sd	s7,568(sp)
   107fa:	23813823          	sd	s8,560(sp)
   107fe:	23913423          	sd	s9,552(sp)
   10802:	21b13c23          	sd	s11,536(sp)
   10806:	8a2a                	mv	s4,a0
   10808:	726060ef          	jal	ra,16f2e <_localeconv_r>
   1080c:	611c                	ld	a5,0(a0)
   1080e:	853e                	mv	a0,a5
   10810:	e13e                	sd	a5,128(sp)
   10812:	f1fff0ef          	jal	ra,10730 <strlen>
   10816:	010b5783          	lhu	a5,16(s6)
   1081a:	fcaa                	sd	a0,120(sp)
   1081c:	e202                	sd	zero,256(sp)
   1081e:	e602                	sd	zero,264(sp)
   10820:	0807f793          	andi	a5,a5,128
   10824:	c791                	beqz	a5,10830 <_svfprintf_r+0x68>
   10826:	018b3783          	ld	a5,24(s6)
   1082a:	e399                	bnez	a5,10830 <_svfprintf_r+0x68>
   1082c:	7c30006f          	j	117ee <_svfprintf_r+0x1026>
   10830:	000d4783          	lbu	a5,0(s10)
   10834:	19010a93          	addi	s5,sp,400
   10838:	ea56                	sd	s5,272(sp)
   1083a:	f202                	sd	zero,288(sp)
   1083c:	10012c23          	sw	zero,280(sp)
   10840:	f402                	sd	zero,40(sp)
   10842:	f802                	sd	zero,48(sp)
   10844:	e902                	sd	zero,144(sp)
   10846:	f882                	sd	zero,112(sp)
   10848:	e502                	sd	zero,136(sp)
   1084a:	ed02                	sd	zero,152(sp)
   1084c:	e402                	sd	zero,8(sp)
   1084e:	8356                	mv	t1,s5
   10850:	4dc1                	li	s11,16
   10852:	0000c917          	auipc	s2,0xc
   10856:	ff690913          	addi	s2,s2,-10 # 1c848 <zeroes.4526>
   1085a:	50078963          	beqz	a5,10d6c <_svfprintf_r+0x5a4>
   1085e:	02500693          	li	a3,37
   10862:	6cd78de3          	beq	a5,a3,1173c <_svfprintf_r+0xf74>
   10866:	846a                	mv	s0,s10
   10868:	a021                	j	10870 <_svfprintf_r+0xa8>
   1086a:	08d78c63          	beq	a5,a3,10902 <_svfprintf_r+0x13a>
   1086e:	844e                	mv	s0,s3
   10870:	00144783          	lbu	a5,1(s0)
   10874:	00140993          	addi	s3,s0,1
   10878:	fbed                	bnez	a5,1086a <_svfprintf_r+0xa2>
   1087a:	41a984bb          	subw	s1,s3,s10
   1087e:	4e048763          	beqz	s1,10d6c <_svfprintf_r+0x5a4>
   10882:	7692                	ld	a3,288(sp)
   10884:	11812783          	lw	a5,280(sp)
   10888:	01a33023          	sd	s10,0(t1)
   1088c:	96a6                	add	a3,a3,s1
   1088e:	2785                	addiw	a5,a5,1
   10890:	00933423          	sd	s1,8(t1)
   10894:	f236                	sd	a3,288(sp)
   10896:	10f12c23          	sw	a5,280(sp)
   1089a:	0007869b          	sext.w	a3,a5
   1089e:	479d                	li	a5,7
   108a0:	0341                	addi	t1,t1,16
   108a2:	06d7c463          	blt	a5,a3,1090a <_svfprintf_r+0x142>
   108a6:	6722                	ld	a4,8(sp)
   108a8:	00144783          	lbu	a5,1(s0)
   108ac:	9f25                	addw	a4,a4,s1
   108ae:	e43a                	sd	a4,8(sp)
   108b0:	4a078e63          	beqz	a5,10d6c <_svfprintf_r+0x5a4>
   108b4:	00198493          	addi	s1,s3,1
   108b8:	0019cf03          	lbu	t5,1(s3)
   108bc:	0c010fa3          	sb	zero,223(sp)
   108c0:	5efd                	li	t4,-1
   108c2:	4b81                	li	s7,0
   108c4:	4401                	li	s0,0
   108c6:	49a5                	li	s3,9
   108c8:	02a00c13          	li	s8,42
   108cc:	0485                	addi	s1,s1,1
   108ce:	000f0c9b          	sext.w	s9,t5
   108d2:	05a00613          	li	a2,90
   108d6:	fe0c879b          	addiw	a5,s9,-32
   108da:	0007869b          	sext.w	a3,a5
   108de:	14d66e63          	bltu	a2,a3,10a3a <_svfprintf_r+0x272>
   108e2:	1782                	slli	a5,a5,0x20
   108e4:	0000c717          	auipc	a4,0xc
   108e8:	de470713          	addi	a4,a4,-540 # 1c6c8 <__clzdi2+0x1dc>
   108ec:	83f9                	srli	a5,a5,0x1e
   108ee:	97ba                	add	a5,a5,a4
   108f0:	439c                	lw	a5,0(a5)
   108f2:	97ba                	add	a5,a5,a4
   108f4:	8782                	jr	a5
   108f6:	01046413          	ori	s0,s0,16
   108fa:	2401                	sext.w	s0,s0
   108fc:	0004cf03          	lbu	t5,0(s1)
   10900:	b7f1                	j	108cc <_svfprintf_r+0x104>
   10902:	41a984bb          	subw	s1,s3,s10
   10906:	d4dd                	beqz	s1,108b4 <_svfprintf_r+0xec>
   10908:	bfad                	j	10882 <_svfprintf_r+0xba>
   1090a:	0a10                	addi	a2,sp,272
   1090c:	85da                	mv	a1,s6
   1090e:	8552                	mv	a0,s4
   10910:	578080ef          	jal	ra,18e88 <__ssprint_r>
   10914:	e105                	bnez	a0,10934 <_svfprintf_r+0x16c>
   10916:	8356                	mv	t1,s5
   10918:	b779                	j	108a6 <_svfprintf_r+0xde>
   1091a:	0a10                	addi	a2,sp,272
   1091c:	85da                	mv	a1,s6
   1091e:	8552                	mv	a0,s4
   10920:	568080ef          	jal	ra,18e88 <__ssprint_r>
   10924:	42050663          	beqz	a0,10d50 <_svfprintf_r+0x588>
   10928:	7782                	ld	a5,32(sp)
   1092a:	c789                	beqz	a5,10934 <_svfprintf_r+0x16c>
   1092c:	7582                	ld	a1,32(sp)
   1092e:	8552                	mv	a0,s4
   10930:	67f030ef          	jal	ra,147ae <_free_r>
   10934:	010b5783          	lhu	a5,16(s6)
   10938:	0407f793          	andi	a5,a5,64
   1093c:	c399                	beqz	a5,10942 <_svfprintf_r+0x17a>
   1093e:	0ad0106f          	j	121ea <_svfprintf_r+0x1a22>
   10942:	27813083          	ld	ra,632(sp)
   10946:	27013403          	ld	s0,624(sp)
   1094a:	6522                	ld	a0,8(sp)
   1094c:	26813483          	ld	s1,616(sp)
   10950:	26013903          	ld	s2,608(sp)
   10954:	25813983          	ld	s3,600(sp)
   10958:	25013a03          	ld	s4,592(sp)
   1095c:	24813a83          	ld	s5,584(sp)
   10960:	24013b03          	ld	s6,576(sp)
   10964:	23813b83          	ld	s7,568(sp)
   10968:	23013c03          	ld	s8,560(sp)
   1096c:	22813c83          	ld	s9,552(sp)
   10970:	22013d03          	ld	s10,544(sp)
   10974:	21813d83          	ld	s11,536(sp)
   10978:	28010113          	addi	sp,sp,640
   1097c:	8082                	ret
   1097e:	66c2                	ld	a3,16(sp)
   10980:	0000c797          	auipc	a5,0xc
   10984:	f3078793          	addi	a5,a5,-208 # 1c8b0 <zeroes.4526+0x68>
   10988:	f83e                	sd	a5,48(sp)
   1098a:	02047793          	andi	a5,s0,32
   1098e:	00868713          	addi	a4,a3,8
   10992:	cbf1                	beqz	a5,10a66 <_svfprintf_r+0x29e>
   10994:	0006b983          	ld	s3,0(a3)
   10998:	00147793          	andi	a5,s0,1
   1099c:	cf81                	beqz	a5,109b4 <_svfprintf_r+0x1ec>
   1099e:	00098b63          	beqz	s3,109b4 <_svfprintf_r+0x1ec>
   109a2:	00246413          	ori	s0,s0,2
   109a6:	03000793          	li	a5,48
   109aa:	0ef10023          	sb	a5,224(sp)
   109ae:	0f9100a3          	sb	s9,225(sp)
   109b2:	2401                	sext.w	s0,s0
   109b4:	bff47693          	andi	a3,s0,-1025
   109b8:	2681                	sext.w	a3,a3
   109ba:	e83a                	sd	a4,16(sp)
   109bc:	4789                	li	a5,2
   109be:	0c010fa3          	sb	zero,223(sp)
   109c2:	577d                	li	a4,-1
   109c4:	24ee8763          	beq	t4,a4,10c12 <_svfprintf_r+0x44a>
   109c8:	f7f6f413          	andi	s0,a3,-129
   109cc:	2401                	sext.w	s0,s0
   109ce:	260991e3          	bnez	s3,11430 <_svfprintf_r+0xc68>
   109d2:	3a0e92e3          	bnez	t4,11576 <_svfprintf_r+0xdae>
   109d6:	1e079d63          	bnez	a5,10bd0 <_svfprintf_r+0x408>
   109da:	0016fc13          	andi	s8,a3,1
   109de:	18c10d13          	addi	s10,sp,396
   109e2:	580c1ae3          	bnez	s8,11776 <_svfprintf_r+0xfae>
   109e6:	000c099b          	sext.w	s3,s8
   109ea:	01dc5463          	bge	s8,t4,109f2 <_svfprintf_r+0x22a>
   109ee:	000e899b          	sext.w	s3,t4
   109f2:	0df14783          	lbu	a5,223(sp)
   109f6:	f002                	sd	zero,32(sp)
   109f8:	ec82                	sd	zero,88(sp)
   109fa:	f482                	sd	zero,104(sp)
   109fc:	f082                	sd	zero,96(sp)
   109fe:	28078263          	beqz	a5,10c82 <_svfprintf_r+0x4ba>
   10a02:	2985                	addiw	s3,s3,1
   10a04:	acbd                	j	10c82 <_svfprintf_r+0x4ba>
   10a06:	4b81                	li	s7,0
   10a08:	0485                	addi	s1,s1,1
   10a0a:	fff4c683          	lbu	a3,-1(s1)
   10a0e:	002b979b          	slliw	a5,s7,0x2
   10a12:	01778bbb          	addw	s7,a5,s7
   10a16:	fd0c8f1b          	addiw	t5,s9,-48
   10a1a:	001b9b9b          	slliw	s7,s7,0x1
   10a1e:	fd06879b          	addiw	a5,a3,-48
   10a22:	017f0bbb          	addw	s7,t5,s7
   10a26:	00068c9b          	sext.w	s9,a3
   10a2a:	fcf9ffe3          	bgeu	s3,a5,10a08 <_svfprintf_r+0x240>
   10a2e:	fe0c879b          	addiw	a5,s9,-32
   10a32:	0007869b          	sext.w	a3,a5
   10a36:	ead676e3          	bgeu	a2,a3,108e2 <_svfprintf_r+0x11a>
   10a3a:	320c8963          	beqz	s9,10d6c <_svfprintf_r+0x5a4>
   10a3e:	13910423          	sb	s9,296(sp)
   10a42:	0c010fa3          	sb	zero,223(sp)
   10a46:	4985                	li	s3,1
   10a48:	4c05                	li	s8,1
   10a4a:	12810d13          	addi	s10,sp,296
   10a4e:	a42d                	j	10c78 <_svfprintf_r+0x4b0>
   10a50:	66c2                	ld	a3,16(sp)
   10a52:	0000c797          	auipc	a5,0xc
   10a56:	e7678793          	addi	a5,a5,-394 # 1c8c8 <zeroes.4526+0x80>
   10a5a:	f83e                	sd	a5,48(sp)
   10a5c:	02047793          	andi	a5,s0,32
   10a60:	00868713          	addi	a4,a3,8
   10a64:	fb85                	bnez	a5,10994 <_svfprintf_r+0x1cc>
   10a66:	01047793          	andi	a5,s0,16
   10a6a:	52079ee3          	bnez	a5,117a6 <_svfprintf_r+0xfde>
   10a6e:	66c2                	ld	a3,16(sp)
   10a70:	04047793          	andi	a5,s0,64
   10a74:	0006a983          	lw	s3,0(a3)
   10a78:	e399                	bnez	a5,10a7e <_svfprintf_r+0x2b6>
   10a7a:	1420106f          	j	11bbc <_svfprintf_r+0x13f4>
   10a7e:	19c2                	slli	s3,s3,0x30
   10a80:	0309d993          	srli	s3,s3,0x30
   10a84:	bf11                	j	10998 <_svfprintf_r+0x1d0>
   10a86:	0004cf03          	lbu	t5,0(s1)
   10a8a:	00446413          	ori	s0,s0,4
   10a8e:	2401                	sext.w	s0,s0
   10a90:	bd35                	j	108cc <_svfprintf_r+0x104>
   10a92:	0004cc83          	lbu	s9,0(s1)
   10a96:	00148793          	addi	a5,s1,1
   10a9a:	018c9463          	bne	s9,s8,10aa2 <_svfprintf_r+0x2da>
   10a9e:	08b0106f          	j	12328 <_svfprintf_r+0x1b60>
   10aa2:	fd0c869b          	addiw	a3,s9,-48
   10aa6:	84be                	mv	s1,a5
   10aa8:	4e81                	li	t4,0
   10aaa:	e2d9e6e3          	bltu	s3,a3,108d6 <_svfprintf_r+0x10e>
   10aae:	0485                	addi	s1,s1,1
   10ab0:	002e979b          	slliw	a5,t4,0x2
   10ab4:	fff4cc83          	lbu	s9,-1(s1)
   10ab8:	01d78ebb          	addw	t4,a5,t4
   10abc:	001e9e9b          	slliw	t4,t4,0x1
   10ac0:	00de8ebb          	addw	t4,t4,a3
   10ac4:	fd0c869b          	addiw	a3,s9,-48
   10ac8:	fed9f3e3          	bgeu	s3,a3,10aae <_svfprintf_r+0x2e6>
   10acc:	b529                	j	108d6 <_svfprintf_r+0x10e>
   10ace:	08046413          	ori	s0,s0,128
   10ad2:	2401                	sext.w	s0,s0
   10ad4:	0004cf03          	lbu	t5,0(s1)
   10ad8:	bbd5                	j	108cc <_svfprintf_r+0x104>
   10ada:	67c2                	ld	a5,16(sp)
   10adc:	01046693          	ori	a3,s0,16
   10ae0:	2681                	sext.w	a3,a3
   10ae2:	00878713          	addi	a4,a5,8
   10ae6:	67c2                	ld	a5,16(sp)
   10ae8:	0007b983          	ld	s3,0(a5)
   10aec:	4785                	li	a5,1
   10aee:	e83a                	sd	a4,16(sp)
   10af0:	b5f9                	j	109be <_svfprintf_r+0x1f6>
   10af2:	67c2                	ld	a5,16(sp)
   10af4:	0c010fa3          	sb	zero,223(sp)
   10af8:	0007bd03          	ld	s10,0(a5)
   10afc:	00878693          	addi	a3,a5,8
   10b00:	500d08e3          	beqz	s10,11810 <_svfprintf_r+0x1048>
   10b04:	57fd                	li	a5,-1
   10b06:	00fe9463          	bne	t4,a5,10b0e <_svfprintf_r+0x346>
   10b0a:	7e50006f          	j	11aee <_svfprintf_r+0x1326>
   10b0e:	8676                	mv	a2,t4
   10b10:	4581                	li	a1,0
   10b12:	856a                	mv	a0,s10
   10b14:	fc36                	sd	a3,56(sp)
   10b16:	ec1a                	sd	t1,24(sp)
   10b18:	e876                	sd	t4,16(sp)
   10b1a:	473060ef          	jal	ra,1778c <memchr>
   10b1e:	f02a                	sd	a0,32(sp)
   10b20:	6ec2                	ld	t4,16(sp)
   10b22:	6362                	ld	t1,24(sp)
   10b24:	76e2                	ld	a3,56(sp)
   10b26:	e119                	bnez	a0,10b2c <_svfprintf_r+0x364>
   10b28:	37c0106f          	j	11ea4 <_svfprintf_r+0x16dc>
   10b2c:	7782                	ld	a5,32(sp)
   10b2e:	e836                	sd	a3,16(sp)
   10b30:	f002                	sd	zero,32(sp)
   10b32:	41a78c3b          	subw	s8,a5,s10
   10b36:	fffc4993          	not	s3,s8
   10b3a:	0df14783          	lbu	a5,223(sp)
   10b3e:	43f9d993          	srai	s3,s3,0x3f
   10b42:	013c79b3          	and	s3,s8,s3
   10b46:	ec82                	sd	zero,88(sp)
   10b48:	f482                	sd	zero,104(sp)
   10b4a:	f082                	sd	zero,96(sp)
   10b4c:	2981                	sext.w	s3,s3
   10b4e:	4e81                	li	t4,0
   10b50:	ea0799e3          	bnez	a5,10a02 <_svfprintf_r+0x23a>
   10b54:	a23d                	j	10c82 <_svfprintf_r+0x4ba>
   10b56:	6742                	ld	a4,16(sp)
   10b58:	01046693          	ori	a3,s0,16
   10b5c:	0006841b          	sext.w	s0,a3
   10b60:	0721                	addi	a4,a4,8
   10b62:	67c2                	ld	a5,16(sp)
   10b64:	0007b983          	ld	s3,0(a5)
   10b68:	e83a                	sd	a4,16(sp)
   10b6a:	bff47693          	andi	a3,s0,-1025
   10b6e:	2681                	sext.w	a3,a3
   10b70:	4781                	li	a5,0
   10b72:	b5b1                	j	109be <_svfprintf_r+0x1f6>
   10b74:	0004cf03          	lbu	t5,0(s1)
   10b78:	06800793          	li	a5,104
   10b7c:	44ff09e3          	beq	t5,a5,117ce <_svfprintf_r+0x1006>
   10b80:	04046413          	ori	s0,s0,64
   10b84:	2401                	sext.w	s0,s0
   10b86:	b399                	j	108cc <_svfprintf_r+0x104>
   10b88:	6742                	ld	a4,16(sp)
   10b8a:	02047793          	andi	a5,s0,32
   10b8e:	0721                	addi	a4,a4,8
   10b90:	3e079be3          	bnez	a5,11786 <_svfprintf_r+0xfbe>
   10b94:	01047793          	andi	a5,s0,16
   10b98:	3e0797e3          	bnez	a5,11786 <_svfprintf_r+0xfbe>
   10b9c:	04047793          	andi	a5,s0,64
   10ba0:	e399                	bnez	a5,10ba6 <_svfprintf_r+0x3de>
   10ba2:	0520106f          	j	11bf4 <_svfprintf_r+0x142c>
   10ba6:	67c2                	ld	a5,16(sp)
   10ba8:	86a2                	mv	a3,s0
   10baa:	e83a                	sd	a4,16(sp)
   10bac:	00079983          	lh	s3,0(a5)
   10bb0:	87ce                	mv	a5,s3
   10bb2:	0407c663          	bltz	a5,10bfe <_svfprintf_r+0x436>
   10bb6:	57fd                	li	a5,-1
   10bb8:	62fe8363          	beq	t4,a5,111de <_svfprintf_r+0xa16>
   10bbc:	f7f6f693          	andi	a3,a3,-129
   10bc0:	0006841b          	sext.w	s0,a3
   10bc4:	60099c63          	bnez	s3,111dc <_svfprintf_r+0xa14>
   10bc8:	000e8463          	beqz	t4,10bd0 <_svfprintf_r+0x408>
   10bcc:	1820106f          	j	11d4e <_svfprintf_r+0x1586>
   10bd0:	4e81                	li	t4,0
   10bd2:	4c01                	li	s8,0
   10bd4:	18c10d13          	addi	s10,sp,396
   10bd8:	b539                	j	109e6 <_svfprintf_r+0x21e>
   10bda:	00846413          	ori	s0,s0,8
   10bde:	2401                	sext.w	s0,s0
   10be0:	0004cf03          	lbu	t5,0(s1)
   10be4:	b1e5                	j	108cc <_svfprintf_r+0x104>
   10be6:	67c2                	ld	a5,16(sp)
   10be8:	01046693          	ori	a3,s0,16
   10bec:	2681                	sext.w	a3,a3
   10bee:	00878713          	addi	a4,a5,8
   10bf2:	67c2                	ld	a5,16(sp)
   10bf4:	639c                	ld	a5,0(a5)
   10bf6:	e83a                	sd	a4,16(sp)
   10bf8:	89be                	mv	s3,a5
   10bfa:	fa07dee3          	bgez	a5,10bb6 <_svfprintf_r+0x3ee>
   10bfe:	02d00793          	li	a5,45
   10c02:	0cf10fa3          	sb	a5,223(sp)
   10c06:	577d                	li	a4,-1
   10c08:	413009b3          	neg	s3,s3
   10c0c:	4785                	li	a5,1
   10c0e:	daee9de3          	bne	t4,a4,109c8 <_svfprintf_r+0x200>
   10c12:	4705                	li	a4,1
   10c14:	5ce78563          	beq	a5,a4,111de <_svfprintf_r+0xa16>
   10c18:	4709                	li	a4,2
   10c1a:	16e785e3          	beq	a5,a4,11584 <_svfprintf_r+0xdbc>
   10c1e:	18c10c13          	addi	s8,sp,396
   10c22:	8662                	mv	a2,s8
   10c24:	a011                	j	10c28 <_svfprintf_r+0x460>
   10c26:	866a                	mv	a2,s10
   10c28:	0079f793          	andi	a5,s3,7
   10c2c:	03078793          	addi	a5,a5,48
   10c30:	fef60fa3          	sb	a5,-1(a2)
   10c34:	0039d993          	srli	s3,s3,0x3
   10c38:	fff60d13          	addi	s10,a2,-1
   10c3c:	fe0995e3          	bnez	s3,10c26 <_svfprintf_r+0x45e>
   10c40:	0016f593          	andi	a1,a3,1
   10c44:	60058163          	beqz	a1,11246 <_svfprintf_r+0xa7e>
   10c48:	03000593          	li	a1,48
   10c4c:	5eb78d63          	beq	a5,a1,11246 <_svfprintf_r+0xa7e>
   10c50:	1679                	addi	a2,a2,-2
   10c52:	febd0fa3          	sb	a1,-1(s10)
   10c56:	40cc0c3b          	subw	s8,s8,a2
   10c5a:	8436                	mv	s0,a3
   10c5c:	8d32                	mv	s10,a2
   10c5e:	b361                	j	109e6 <_svfprintf_r+0x21e>
   10c60:	6742                	ld	a4,16(sp)
   10c62:	0c010fa3          	sb	zero,223(sp)
   10c66:	4985                	li	s3,1
   10c68:	431c                	lw	a5,0(a4)
   10c6a:	0721                	addi	a4,a4,8
   10c6c:	e83a                	sd	a4,16(sp)
   10c6e:	12f10423          	sb	a5,296(sp)
   10c72:	4c05                	li	s8,1
   10c74:	12810d13          	addi	s10,sp,296
   10c78:	f002                	sd	zero,32(sp)
   10c7a:	4e81                	li	t4,0
   10c7c:	ec82                	sd	zero,88(sp)
   10c7e:	f482                	sd	zero,104(sp)
   10c80:	f082                	sd	zero,96(sp)
   10c82:	00247893          	andi	a7,s0,2
   10c86:	2881                	sext.w	a7,a7
   10c88:	00088363          	beqz	a7,10c8e <_svfprintf_r+0x4c6>
   10c8c:	2989                	addiw	s3,s3,2
   10c8e:	08447293          	andi	t0,s0,132
   10c92:	7792                	ld	a5,288(sp)
   10c94:	00029663          	bnez	t0,10ca0 <_svfprintf_r+0x4d8>
   10c98:	413b883b          	subw	a6,s7,s3
   10c9c:	79004d63          	bgtz	a6,11436 <_svfprintf_r+0xc6e>
   10ca0:	0df14683          	lbu	a3,223(sp)
   10ca4:	c68d                	beqz	a3,10cce <_svfprintf_r+0x506>
   10ca6:	11812683          	lw	a3,280(sp)
   10caa:	0df10613          	addi	a2,sp,223
   10cae:	00c33023          	sd	a2,0(t1)
   10cb2:	2685                	addiw	a3,a3,1
   10cb4:	4605                	li	a2,1
   10cb6:	0785                	addi	a5,a5,1
   10cb8:	00c33423          	sd	a2,8(t1)
   10cbc:	10d12c23          	sw	a3,280(sp)
   10cc0:	0006861b          	sext.w	a2,a3
   10cc4:	f23e                	sd	a5,288(sp)
   10cc6:	469d                	li	a3,7
   10cc8:	0341                	addi	t1,t1,16
   10cca:	0ac6cc63          	blt	a3,a2,10d82 <_svfprintf_r+0x5ba>
   10cce:	02088563          	beqz	a7,10cf8 <_svfprintf_r+0x530>
   10cd2:	11812683          	lw	a3,280(sp)
   10cd6:	1190                	addi	a2,sp,224
   10cd8:	00c33023          	sd	a2,0(t1)
   10cdc:	2685                	addiw	a3,a3,1
   10cde:	4609                	li	a2,2
   10ce0:	0789                	addi	a5,a5,2
   10ce2:	00c33423          	sd	a2,8(t1)
   10ce6:	10d12c23          	sw	a3,280(sp)
   10cea:	0006861b          	sext.w	a2,a3
   10cee:	f23e                	sd	a5,288(sp)
   10cf0:	469d                	li	a3,7
   10cf2:	0341                	addi	t1,t1,16
   10cf4:	7ec6c263          	blt	a3,a2,114d8 <_svfprintf_r+0xd10>
   10cf8:	08000693          	li	a3,128
   10cfc:	62d28363          	beq	t0,a3,11322 <_svfprintf_r+0xb5a>
   10d00:	418e8ebb          	subw	t4,t4,s8
   10d04:	6bd04863          	bgtz	t4,113b4 <_svfprintf_r+0xbec>
   10d08:	10047693          	andi	a3,s0,256
   10d0c:	54069263          	bnez	a3,11250 <_svfprintf_r+0xa88>
   10d10:	11812703          	lw	a4,280(sp)
   10d14:	97e2                	add	a5,a5,s8
   10d16:	01a33023          	sd	s10,0(t1)
   10d1a:	0017069b          	addiw	a3,a4,1
   10d1e:	8736                	mv	a4,a3
   10d20:	01833423          	sd	s8,8(t1)
   10d24:	10e12c23          	sw	a4,280(sp)
   10d28:	f23e                	sd	a5,288(sp)
   10d2a:	471d                	li	a4,7
   10d2c:	12d74d63          	blt	a4,a3,10e66 <_svfprintf_r+0x69e>
   10d30:	0341                	addi	t1,t1,16
   10d32:	8811                	andi	s0,s0,4
   10d34:	c409                	beqz	s0,10d3e <_svfprintf_r+0x576>
   10d36:	413b843b          	subw	s0,s7,s3
   10d3a:	7a804e63          	bgtz	s0,114f6 <_svfprintf_r+0xd2e>
   10d3e:	875e                	mv	a4,s7
   10d40:	013bd363          	bge	s7,s3,10d46 <_svfprintf_r+0x57e>
   10d44:	874e                	mv	a4,s3
   10d46:	66a2                	ld	a3,8(sp)
   10d48:	9f35                	addw	a4,a4,a3
   10d4a:	e43a                	sd	a4,8(sp)
   10d4c:	bc0797e3          	bnez	a5,1091a <_svfprintf_r+0x152>
   10d50:	7782                	ld	a5,32(sp)
   10d52:	10012c23          	sw	zero,280(sp)
   10d56:	c789                	beqz	a5,10d60 <_svfprintf_r+0x598>
   10d58:	7582                	ld	a1,32(sp)
   10d5a:	8552                	mv	a0,s4
   10d5c:	253030ef          	jal	ra,147ae <_free_r>
   10d60:	8356                	mv	t1,s5
   10d62:	8d26                	mv	s10,s1
   10d64:	000d4783          	lbu	a5,0(s10)
   10d68:	ae079be3          	bnez	a5,1085e <_svfprintf_r+0x96>
   10d6c:	7792                	ld	a5,288(sp)
   10d6e:	bc0783e3          	beqz	a5,10934 <_svfprintf_r+0x16c>
   10d72:	0a10                	addi	a2,sp,272
   10d74:	85da                	mv	a1,s6
   10d76:	8552                	mv	a0,s4
   10d78:	110080ef          	jal	ra,18e88 <__ssprint_r>
   10d7c:	010b5783          	lhu	a5,16(s6)
   10d80:	be65                	j	10938 <_svfprintf_r+0x170>
   10d82:	0a10                	addi	a2,sp,272
   10d84:	85da                	mv	a1,s6
   10d86:	8552                	mv	a0,s4
   10d88:	e0f6                	sd	t4,64(sp)
   10d8a:	fc16                	sd	t0,56(sp)
   10d8c:	ec46                	sd	a7,24(sp)
   10d8e:	0fa080ef          	jal	ra,18e88 <__ssprint_r>
   10d92:	b8051be3          	bnez	a0,10928 <_svfprintf_r+0x160>
   10d96:	7792                	ld	a5,288(sp)
   10d98:	8356                	mv	t1,s5
   10d9a:	6e86                	ld	t4,64(sp)
   10d9c:	72e2                	ld	t0,56(sp)
   10d9e:	68e2                	ld	a7,24(sp)
   10da0:	b73d                	j	10cce <_svfprintf_r+0x506>
   10da2:	11812f03          	lw	t5,280(sp)
   10da6:	7722                	ld	a4,40(sp)
   10da8:	4585                	li	a1,1
   10daa:	001f069b          	addiw	a3,t5,1
   10dae:	01a33023          	sd	s10,0(t1)
   10db2:	0785                	addi	a5,a5,1
   10db4:	8636                	mv	a2,a3
   10db6:	01030c13          	addi	s8,t1,16
   10dba:	10e5d9e3          	bge	a1,a4,116cc <_svfprintf_r+0xf04>
   10dbe:	4585                	li	a1,1
   10dc0:	10c12c23          	sw	a2,280(sp)
   10dc4:	00b33423          	sd	a1,8(t1)
   10dc8:	f23e                	sd	a5,288(sp)
   10dca:	461d                	li	a2,7
   10dcc:	16d64be3          	blt	a2,a3,11742 <_svfprintf_r+0xf7a>
   10dd0:	7766                	ld	a4,120(sp)
   10dd2:	660a                	ld	a2,128(sp)
   10dd4:	0016881b          	addiw	a6,a3,1
   10dd8:	97ba                	add	a5,a5,a4
   10dda:	00cc3023          	sd	a2,0(s8)
   10dde:	00ec3423          	sd	a4,8(s8)
   10de2:	f23e                	sd	a5,288(sp)
   10de4:	11012c23          	sw	a6,280(sp)
   10de8:	469d                	li	a3,7
   10dea:	0c41                	addi	s8,s8,16
   10dec:	1706c8e3          	blt	a3,a6,1175c <_svfprintf_r+0xf94>
   10df0:	e4be                	sd	a5,72(sp)
   10df2:	77a2                	ld	a5,40(sp)
   10df4:	6512                	ld	a0,256(sp)
   10df6:	65b2                	ld	a1,264(sp)
   10df8:	00180e9b          	addiw	t4,a6,1
   10dfc:	fff7889b          	addiw	a7,a5,-1
   10e00:	010c0313          	addi	t1,s8,16
   10e04:	4601                	li	a2,0
   10e06:	4681                	li	a3,0
   10e08:	000e8c9b          	sext.w	s9,t4
   10e0c:	e0f6                	sd	t4,64(sp)
   10e0e:	fc1a                	sd	t1,56(sp)
   10e10:	ec46                	sd	a7,24(sp)
   10e12:	e8c2                	sd	a6,80(sp)
   10e14:	2e60a0ef          	jal	ra,1b0fa <__eqtf2>
   10e18:	68e2                	ld	a7,24(sp)
   10e1a:	7362                	ld	t1,56(sp)
   10e1c:	6e86                	ld	t4,64(sp)
   10e1e:	67a6                	ld	a5,72(sp)
   10e20:	0c0508e3          	beqz	a0,116f0 <_svfprintf_r+0xf28>
   10e24:	001d0713          	addi	a4,s10,1
   10e28:	97c6                	add	a5,a5,a7
   10e2a:	00ec3023          	sd	a4,0(s8)
   10e2e:	011c3423          	sd	a7,8(s8)
   10e32:	f23e                	sd	a5,288(sp)
   10e34:	11d12c23          	sw	t4,280(sp)
   10e38:	471d                	li	a4,7
   10e3a:	379744e3          	blt	a4,s9,119a2 <_svfprintf_r+0x11da>
   10e3e:	6846                	ld	a6,80(sp)
   10e40:	020c0713          	addi	a4,s8,32
   10e44:	8c1a                	mv	s8,t1
   10e46:	00280c9b          	addiw	s9,a6,2
   10e4a:	833a                	mv	t1,a4
   10e4c:	66ca                	ld	a3,144(sp)
   10e4e:	1998                	addi	a4,sp,240
   10e50:	00ec3023          	sd	a4,0(s8)
   10e54:	97b6                	add	a5,a5,a3
   10e56:	00dc3423          	sd	a3,8(s8)
   10e5a:	f23e                	sd	a5,288(sp)
   10e5c:	11912c23          	sw	s9,280(sp)
   10e60:	471d                	li	a4,7
   10e62:	ed9758e3          	bge	a4,s9,10d32 <_svfprintf_r+0x56a>
   10e66:	0a10                	addi	a2,sp,272
   10e68:	85da                	mv	a1,s6
   10e6a:	8552                	mv	a0,s4
   10e6c:	01c080ef          	jal	ra,18e88 <__ssprint_r>
   10e70:	aa051ce3          	bnez	a0,10928 <_svfprintf_r+0x160>
   10e74:	7792                	ld	a5,288(sp)
   10e76:	8356                	mv	t1,s5
   10e78:	bd6d                	j	10d32 <_svfprintf_r+0x56a>
   10e7a:	02b00793          	li	a5,43
   10e7e:	0cf10fa3          	sb	a5,223(sp)
   10e82:	0004cf03          	lbu	t5,0(s1)
   10e86:	b499                	j	108cc <_svfprintf_r+0x104>
   10e88:	67c2                	ld	a5,16(sp)
   10e8a:	0004cf03          	lbu	t5,0(s1)
   10e8e:	0007ab83          	lw	s7,0(a5)
   10e92:	07a1                	addi	a5,a5,8
   10e94:	e83e                	sd	a5,16(sp)
   10e96:	a20bdbe3          	bgez	s7,108cc <_svfprintf_r+0x104>
   10e9a:	41700bbb          	negw	s7,s7
   10e9e:	b6f5                	j	10a8a <_svfprintf_r+0x2c2>
   10ea0:	8552                	mv	a0,s4
   10ea2:	f01a                	sd	t1,32(sp)
   10ea4:	ec76                	sd	t4,24(sp)
   10ea6:	088060ef          	jal	ra,16f2e <_localeconv_r>
   10eaa:	651c                	ld	a5,8(a0)
   10eac:	853e                	mv	a0,a5
   10eae:	ed3e                	sd	a5,152(sp)
   10eb0:	881ff0ef          	jal	ra,10730 <strlen>
   10eb4:	e52a                	sd	a0,136(sp)
   10eb6:	8caa                	mv	s9,a0
   10eb8:	8552                	mv	a0,s4
   10eba:	074060ef          	jal	ra,16f2e <_localeconv_r>
   10ebe:	6918                	ld	a4,16(a0)
   10ec0:	6ee2                	ld	t4,24(sp)
   10ec2:	7302                	ld	t1,32(sp)
   10ec4:	f8ba                	sd	a4,112(sp)
   10ec6:	0004cf03          	lbu	t5,0(s1)
   10eca:	a00c81e3          	beqz	s9,108cc <_svfprintf_r+0x104>
   10ece:	9e070fe3          	beqz	a4,108cc <_svfprintf_r+0x104>
   10ed2:	00074783          	lbu	a5,0(a4)
   10ed6:	9e078be3          	beqz	a5,108cc <_svfprintf_r+0x104>
   10eda:	40046413          	ori	s0,s0,1024
   10ede:	2401                	sext.w	s0,s0
   10ee0:	b2f5                	j	108cc <_svfprintf_r+0x104>
   10ee2:	00146413          	ori	s0,s0,1
   10ee6:	2401                	sext.w	s0,s0
   10ee8:	0004cf03          	lbu	t5,0(s1)
   10eec:	b2c5                	j	108cc <_svfprintf_r+0x104>
   10eee:	0df14783          	lbu	a5,223(sp)
   10ef2:	0004cf03          	lbu	t5,0(s1)
   10ef6:	9c079be3          	bnez	a5,108cc <_svfprintf_r+0x104>
   10efa:	02000793          	li	a5,32
   10efe:	0cf10fa3          	sb	a5,223(sp)
   10f02:	b2e9                	j	108cc <_svfprintf_r+0x104>
   10f04:	6742                	ld	a4,16(sp)
   10f06:	02047793          	andi	a5,s0,32
   10f0a:	0721                	addi	a4,a4,8
   10f0c:	08079ae3          	bnez	a5,117a0 <_svfprintf_r+0xfd8>
   10f10:	01047793          	andi	a5,s0,16
   10f14:	080796e3          	bnez	a5,117a0 <_svfprintf_r+0xfd8>
   10f18:	66c2                	ld	a3,16(sp)
   10f1a:	04047793          	andi	a5,s0,64
   10f1e:	0006a983          	lw	s3,0(a3)
   10f22:	4a078ee3          	beqz	a5,11bde <_svfprintf_r+0x1416>
   10f26:	19c2                	slli	s3,s3,0x30
   10f28:	0309d993          	srli	s3,s3,0x30
   10f2c:	e83a                	sd	a4,16(sp)
   10f2e:	86a2                	mv	a3,s0
   10f30:	4785                	li	a5,1
   10f32:	b471                	j	109be <_svfprintf_r+0x1f6>
   10f34:	02046413          	ori	s0,s0,32
   10f38:	2401                	sext.w	s0,s0
   10f3a:	0004cf03          	lbu	t5,0(s1)
   10f3e:	b279                	j	108cc <_svfprintf_r+0x104>
   10f40:	6742                	ld	a4,16(sp)
   10f42:	77e1                	lui	a5,0xffff8
   10f44:	8307c793          	xori	a5,a5,-2000
   10f48:	0ef11023          	sh	a5,224(sp)
   10f4c:	00870793          	addi	a5,a4,8
   10f50:	00246693          	ori	a3,s0,2
   10f54:	e83e                	sd	a5,16(sp)
   10f56:	0000c797          	auipc	a5,0xc
   10f5a:	95a78793          	addi	a5,a5,-1702 # 1c8b0 <zeroes.4526+0x68>
   10f5e:	f83e                	sd	a5,48(sp)
   10f60:	00073983          	ld	s3,0(a4)
   10f64:	2681                	sext.w	a3,a3
   10f66:	4789                	li	a5,2
   10f68:	07800c93          	li	s9,120
   10f6c:	bc89                	j	109be <_svfprintf_r+0x1f6>
   10f6e:	6742                	ld	a4,16(sp)
   10f70:	02047793          	andi	a5,s0,32
   10f74:	0721                	addi	a4,a4,8
   10f76:	be0796e3          	bnez	a5,10b62 <_svfprintf_r+0x39a>
   10f7a:	01047793          	andi	a5,s0,16
   10f7e:	be0792e3          	bnez	a5,10b62 <_svfprintf_r+0x39a>
   10f82:	66c2                	ld	a3,16(sp)
   10f84:	04047793          	andi	a5,s0,64
   10f88:	0006a983          	lw	s3,0(a3)
   10f8c:	440780e3          	beqz	a5,11bcc <_svfprintf_r+0x1404>
   10f90:	19c2                	slli	s3,s3,0x30
   10f92:	0309d993          	srli	s3,s3,0x30
   10f96:	e83a                	sd	a4,16(sp)
   10f98:	bec9                	j	10b6a <_svfprintf_r+0x3a2>
   10f9a:	66c2                	ld	a3,16(sp)
   10f9c:	02047793          	andi	a5,s0,32
   10fa0:	6298                	ld	a4,0(a3)
   10fa2:	06a1                	addi	a3,a3,8
   10fa4:	e836                	sd	a3,16(sp)
   10fa6:	22079763          	bnez	a5,111d4 <_svfprintf_r+0xa0c>
   10faa:	01047793          	andi	a5,s0,16
   10fae:	22079363          	bnez	a5,111d4 <_svfprintf_r+0xa0c>
   10fb2:	04047793          	andi	a5,s0,64
   10fb6:	520793e3          	bnez	a5,11cdc <_svfprintf_r+0x1514>
   10fba:	20047413          	andi	s0,s0,512
   10fbe:	67a2                	ld	a5,8(sp)
   10fc0:	e019                	bnez	s0,10fc6 <_svfprintf_r+0x7fe>
   10fc2:	2200106f          	j	121e2 <_svfprintf_r+0x1a1a>
   10fc6:	00f70023          	sb	a5,0(a4)
   10fca:	8d26                	mv	s10,s1
   10fcc:	bb61                	j	10d64 <_svfprintf_r+0x59c>
   10fce:	0004cf03          	lbu	t5,0(s1)
   10fd2:	06c00793          	li	a5,108
   10fd6:	00ff04e3          	beq	t5,a5,117de <_svfprintf_r+0x1016>
   10fda:	01046413          	ori	s0,s0,16
   10fde:	2401                	sext.w	s0,s0
   10fe0:	b0f5                	j	108cc <_svfprintf_r+0x104>
   10fe2:	00847793          	andi	a5,s0,8
   10fe6:	7a079363          	bnez	a5,1178c <_svfprintf_r+0xfc4>
   10fea:	67c2                	ld	a5,16(sp)
   10fec:	f01a                	sd	t1,32(sp)
   10fee:	ec76                	sd	t4,24(sp)
   10ff0:	2388                	fld	fa0,0(a5)
   10ff2:	07a1                	addi	a5,a5,8
   10ff4:	e83e                	sd	a5,16(sp)
   10ff6:	20a0b0ef          	jal	ra,1c200 <__extenddftf2>
   10ffa:	7302                	ld	t1,32(sp)
   10ffc:	6ee2                	ld	t4,24(sp)
   10ffe:	e22a                	sd	a0,256(sp)
   11000:	e62e                	sd	a1,264(sp)
   11002:	0208                	addi	a0,sp,256
   11004:	f01a                	sd	t1,32(sp)
   11006:	ec76                	sd	t4,24(sp)
   11008:	6eb050ef          	jal	ra,16ef2 <_ldcheck>
   1100c:	d5aa                	sw	a0,232(sp)
   1100e:	4789                	li	a5,2
   11010:	6ee2                	ld	t4,24(sp)
   11012:	7302                	ld	t1,32(sp)
   11014:	28f50ae3          	beq	a0,a5,11aa8 <_svfprintf_r+0x12e0>
   11018:	4785                	li	a5,1
   1101a:	3ef508e3          	beq	a0,a5,11c0a <_svfprintf_r+0x1442>
   1101e:	06100793          	li	a5,97
   11022:	00fc9463          	bne	s9,a5,1102a <_svfprintf_r+0x862>
   11026:	19c0106f          	j	121c2 <_svfprintf_r+0x19fa>
   1102a:	04100793          	li	a5,65
   1102e:	70fc8ae3          	beq	s9,a5,11f42 <_svfprintf_r+0x177a>
   11032:	fdfcf713          	andi	a4,s9,-33
   11036:	57fd                	li	a5,-1
   11038:	f53a                	sd	a4,168(sp)
   1103a:	50fe87e3          	beq	t4,a5,11d48 <_svfprintf_r+0x1580>
   1103e:	04700793          	li	a5,71
   11042:	00f71463          	bne	a4,a5,1104a <_svfprintf_r+0x882>
   11046:	18a0106f          	j	121d0 <_svfprintf_r+0x1a08>
   1104a:	6c32                	ld	s8,264(sp)
   1104c:	10046793          	ori	a5,s0,256
   11050:	f922                	sd	s0,176(sp)
   11052:	2781                	sext.w	a5,a5
   11054:	6f92                	ld	t6,256(sp)
   11056:	000c5463          	bgez	s8,1105e <_svfprintf_r+0x896>
   1105a:	08c0106f          	j	120e6 <_svfprintf_r+0x191e>
   1105e:	e582                	sd	zero,200(sp)
   11060:	843e                	mv	s0,a5
   11062:	f002                	sd	zero,32(sp)
   11064:	772a                	ld	a4,168(sp)
   11066:	04600793          	li	a5,70
   1106a:	54f707e3          	beq	a4,a5,11db8 <_svfprintf_r+0x15f0>
   1106e:	04500793          	li	a5,69
   11072:	fc1a                	sd	t1,56(sp)
   11074:	00f71463          	bne	a4,a5,1107c <_svfprintf_r+0x8b4>
   11078:	11e0106f          	j	12196 <_svfprintf_r+0x19ce>
   1107c:	8776                	mv	a4,t4
   1107e:	11bc                	addi	a5,sp,232
   11080:	85fe                	mv	a1,t6
   11082:	0f810893          	addi	a7,sp,248
   11086:	0ec10813          	addi	a6,sp,236
   1108a:	4689                	li	a3,2
   1108c:	8662                	mv	a2,s8
   1108e:	8552                	mv	a0,s4
   11090:	f476                	sd	t4,40(sp)
   11092:	ec7e                	sd	t6,24(sp)
   11094:	797040ef          	jal	ra,1602a <_ldtoa_r>
   11098:	772a                	ld	a4,168(sp)
   1109a:	04700793          	li	a5,71
   1109e:	8d2a                	mv	s10,a0
   110a0:	6fe2                	ld	t6,24(sp)
   110a2:	7ea2                	ld	t4,40(sp)
   110a4:	7362                	ld	t1,56(sp)
   110a6:	00f70463          	beq	a4,a5,110ae <_svfprintf_r+0x8e6>
   110aa:	2a00106f          	j	1234a <_svfprintf_r+0x1b82>
   110ae:	77ca                	ld	a5,176(sp)
   110b0:	01d509b3          	add	s3,a0,t4
   110b4:	8b85                	andi	a5,a5,1
   110b6:	54079ee3          	bnez	a5,11e12 <_svfprintf_r+0x164a>
   110ba:	77ee                	ld	a5,248(sp)
   110bc:	41a787bb          	subw	a5,a5,s10
   110c0:	f43e                	sd	a5,40(sp)
   110c2:	572e                	lw	a4,232(sp)
   110c4:	04700793          	li	a5,71
   110c8:	f0ba                	sd	a4,96(sp)
   110ca:	772a                	ld	a4,168(sp)
   110cc:	48f70be3          	beq	a4,a5,11d62 <_svfprintf_r+0x159a>
   110d0:	772a                	ld	a4,168(sp)
   110d2:	04600793          	li	a5,70
   110d6:	60f705e3          	beq	a4,a5,11ee0 <_svfprintf_r+0x1718>
   110da:	7786                	ld	a5,96(sp)
   110dc:	772a                	ld	a4,168(sp)
   110de:	04100593          	li	a1,65
   110e2:	37fd                	addiw	a5,a5,-1
   110e4:	d5be                	sw	a5,232(sp)
   110e6:	0ffcf693          	andi	a3,s9,255
   110ea:	4601                	li	a2,0
   110ec:	00b71663          	bne	a4,a1,110f8 <_svfprintf_r+0x930>
   110f0:	26bd                	addiw	a3,a3,15
   110f2:	0ff6f693          	andi	a3,a3,255
   110f6:	4605                	li	a2,1
   110f8:	0ed10823          	sb	a3,240(sp)
   110fc:	02b00693          	li	a3,43
   11100:	0007d763          	bgez	a5,1110e <_svfprintf_r+0x946>
   11104:	7706                	ld	a4,96(sp)
   11106:	4785                	li	a5,1
   11108:	02d00693          	li	a3,45
   1110c:	9f99                	subw	a5,a5,a4
   1110e:	0ed108a3          	sb	a3,241(sp)
   11112:	46a5                	li	a3,9
   11114:	00f6c463          	blt	a3,a5,1111c <_svfprintf_r+0x954>
   11118:	0da0106f          	j	121f2 <_svfprintf_r+0x1a2a>
   1111c:	0ff10513          	addi	a0,sp,255
   11120:	85aa                	mv	a1,a0
   11122:	4829                	li	a6,10
   11124:	06300893          	li	a7,99
   11128:	a019                	j	1112e <_svfprintf_r+0x966>
   1112a:	85b2                	mv	a1,a2
   1112c:	87b6                	mv	a5,a3
   1112e:	0307e6bb          	remw	a3,a5,a6
   11132:	fff58613          	addi	a2,a1,-1
   11136:	0306869b          	addiw	a3,a3,48
   1113a:	fed58fa3          	sb	a3,-1(a1)
   1113e:	0307c6bb          	divw	a3,a5,a6
   11142:	fef8c4e3          	blt	a7,a5,1112a <_svfprintf_r+0x962>
   11146:	0306879b          	addiw	a5,a3,48
   1114a:	0ff7f793          	andi	a5,a5,255
   1114e:	ffe58693          	addi	a3,a1,-2
   11152:	fef60fa3          	sb	a5,-1(a2)
   11156:	00a6e463          	bltu	a3,a0,1115e <_svfprintf_r+0x996>
   1115a:	1e80106f          	j	12342 <_svfprintf_r+0x1b7a>
   1115e:	0f210613          	addi	a2,sp,242
   11162:	a019                	j	11168 <_svfprintf_r+0x9a0>
   11164:	0006c783          	lbu	a5,0(a3)
   11168:	0605                	addi	a2,a2,1
   1116a:	0685                	addi	a3,a3,1
   1116c:	fef60fa3          	sb	a5,-1(a2)
   11170:	fea69ae3          	bne	a3,a0,11164 <_svfprintf_r+0x99c>
   11174:	10110793          	addi	a5,sp,257
   11178:	8f8d                	sub	a5,a5,a1
   1117a:	0f210713          	addi	a4,sp,242
   1117e:	97ba                	add	a5,a5,a4
   11180:	1994                	addi	a3,sp,240
   11182:	9f95                	subw	a5,a5,a3
   11184:	e93e                	sd	a5,144(sp)
   11186:	67ca                	ld	a5,144(sp)
   11188:	7722                	ld	a4,40(sp)
   1118a:	4685                	li	a3,1
   1118c:	00f70c3b          	addw	s8,a4,a5
   11190:	87e2                	mv	a5,s8
   11192:	00e6c463          	blt	a3,a4,1119a <_svfprintf_r+0x9d2>
   11196:	14e0106f          	j	122e4 <_svfprintf_r+0x1b1c>
   1119a:	7766                	ld	a4,120(sp)
   1119c:	00e78c3b          	addw	s8,a5,a4
   111a0:	77ca                	ld	a5,176(sp)
   111a2:	fffc4993          	not	s3,s8
   111a6:	43f9d993          	srai	s3,s3,0x3f
   111aa:	bff7f413          	andi	s0,a5,-1025
   111ae:	2401                	sext.w	s0,s0
   111b0:	013c79b3          	and	s3,s8,s3
   111b4:	10046413          	ori	s0,s0,256
   111b8:	2981                	sext.w	s3,s3
   111ba:	ec82                	sd	zero,88(sp)
   111bc:	f482                	sd	zero,104(sp)
   111be:	f082                	sd	zero,96(sp)
   111c0:	67ae                	ld	a5,200(sp)
   111c2:	480784e3          	beqz	a5,11e4a <_svfprintf_r+0x1682>
   111c6:	02d00793          	li	a5,45
   111ca:	0cf10fa3          	sb	a5,223(sp)
   111ce:	4e81                	li	t4,0
   111d0:	2985                	addiw	s3,s3,1
   111d2:	bc45                	j	10c82 <_svfprintf_r+0x4ba>
   111d4:	67a2                	ld	a5,8(sp)
   111d6:	8d26                	mv	s10,s1
   111d8:	e31c                	sd	a5,0(a4)
   111da:	b669                	j	10d64 <_svfprintf_r+0x59c>
   111dc:	86a2                	mv	a3,s0
   111de:	47a5                	li	a5,9
   111e0:	0137ec63          	bltu	a5,s3,111f8 <_svfprintf_r+0xa30>
   111e4:	0309899b          	addiw	s3,s3,48
   111e8:	193105a3          	sb	s3,395(sp)
   111ec:	8436                	mv	s0,a3
   111ee:	4c05                	li	s8,1
   111f0:	18b10d13          	addi	s10,sp,395
   111f4:	ff2ff06f          	j	109e6 <_svfprintf_r+0x21e>
   111f8:	4006f793          	andi	a5,a3,1024
   111fc:	18c10c13          	addi	s8,sp,396
   11200:	2781                	sext.w	a5,a5
   11202:	f402                	sd	zero,40(sp)
   11204:	85e2                	mv	a1,s8
   11206:	4429                	li	s0,10
   11208:	4825                	li	a6,9
   1120a:	0ff00893          	li	a7,255
   1120e:	a039                	j	1121c <_svfprintf_r+0xa54>
   11210:	0289d633          	divu	a2,s3,s0
   11214:	03387963          	bgeu	a6,s3,11246 <_svfprintf_r+0xa7e>
   11218:	89b2                	mv	s3,a2
   1121a:	85ea                	mv	a1,s10
   1121c:	7722                	ld	a4,40(sp)
   1121e:	fff58d13          	addi	s10,a1,-1
   11222:	2705                	addiw	a4,a4,1
   11224:	f43a                	sd	a4,40(sp)
   11226:	0289f633          	remu	a2,s3,s0
   1122a:	0306061b          	addiw	a2,a2,48
   1122e:	fec58fa3          	sb	a2,-1(a1)
   11232:	dff9                	beqz	a5,11210 <_svfprintf_r+0xa48>
   11234:	7646                	ld	a2,112(sp)
   11236:	00064603          	lbu	a2,0(a2)
   1123a:	fcc71be3          	bne	a4,a2,11210 <_svfprintf_r+0xa48>
   1123e:	fd1609e3          	beq	a2,a7,11210 <_svfprintf_r+0xa48>
   11242:	23386fe3          	bltu	a6,s3,11c80 <_svfprintf_r+0x14b8>
   11246:	41ac0c3b          	subw	s8,s8,s10
   1124a:	8436                	mv	s0,a3
   1124c:	f9aff06f          	j	109e6 <_svfprintf_r+0x21e>
   11250:	06500693          	li	a3,101
   11254:	b596d7e3          	bge	a3,s9,10da2 <_svfprintf_r+0x5da>
   11258:	6512                	ld	a0,256(sp)
   1125a:	65b2                	ld	a1,264(sp)
   1125c:	4601                	li	a2,0
   1125e:	4681                	li	a3,0
   11260:	fc1a                	sd	t1,56(sp)
   11262:	ec3e                	sd	a5,24(sp)
   11264:	697090ef          	jal	ra,1b0fa <__eqtf2>
   11268:	67e2                	ld	a5,24(sp)
   1126a:	7362                	ld	t1,56(sp)
   1126c:	34051163          	bnez	a0,115ae <_svfprintf_r+0xde6>
   11270:	11812703          	lw	a4,280(sp)
   11274:	0000b697          	auipc	a3,0xb
   11278:	67468693          	addi	a3,a3,1652 # 1c8e8 <zeroes.4526+0xa0>
   1127c:	0785                	addi	a5,a5,1
   1127e:	2705                	addiw	a4,a4,1
   11280:	00d33023          	sd	a3,0(t1)
   11284:	4685                	li	a3,1
   11286:	00d33423          	sd	a3,8(t1)
   1128a:	f23e                	sd	a5,288(sp)
   1128c:	0007069b          	sext.w	a3,a4
   11290:	10e12c23          	sw	a4,280(sp)
   11294:	479d                	li	a5,7
   11296:	0341                	addi	t1,t1,16
   11298:	7cd7c363          	blt	a5,a3,11a5e <_svfprintf_r+0x1296>
   1129c:	57ae                	lw	a5,232(sp)
   1129e:	7722                	ld	a4,40(sp)
   112a0:	00e7c763          	blt	a5,a4,112ae <_svfprintf_r+0xae6>
   112a4:	00147793          	andi	a5,s0,1
   112a8:	e399                	bnez	a5,112ae <_svfprintf_r+0xae6>
   112aa:	7792                	ld	a5,288(sp)
   112ac:	b459                	j	10d32 <_svfprintf_r+0x56a>
   112ae:	678a                	ld	a5,128(sp)
   112b0:	76e6                	ld	a3,120(sp)
   112b2:	11812703          	lw	a4,280(sp)
   112b6:	00f33023          	sd	a5,0(t1)
   112ba:	7792                	ld	a5,288(sp)
   112bc:	2705                	addiw	a4,a4,1
   112be:	00d33423          	sd	a3,8(t1)
   112c2:	97b6                	add	a5,a5,a3
   112c4:	10e12c23          	sw	a4,280(sp)
   112c8:	0007069b          	sext.w	a3,a4
   112cc:	f23e                	sd	a5,288(sp)
   112ce:	471d                	li	a4,7
   112d0:	0341                	addi	t1,t1,16
   112d2:	4ed74463          	blt	a4,a3,117ba <_svfprintf_r+0xff2>
   112d6:	7722                	ld	a4,40(sp)
   112d8:	fff70c1b          	addiw	s8,a4,-1
   112dc:	a5805be3          	blez	s8,10d32 <_svfprintf_r+0x56a>
   112e0:	11812703          	lw	a4,280(sp)
   112e4:	798dd863          	bge	s11,s8,11a74 <_svfprintf_r+0x12ac>
   112e8:	4c9d                	li	s9,7
   112ea:	a021                	j	112f2 <_svfprintf_r+0xb2a>
   112ec:	3c41                	addiw	s8,s8,-16
   112ee:	798dd363          	bge	s11,s8,11a74 <_svfprintf_r+0x12ac>
   112f2:	2705                	addiw	a4,a4,1
   112f4:	07c1                	addi	a5,a5,16
   112f6:	01233023          	sd	s2,0(t1)
   112fa:	01b33423          	sd	s11,8(t1)
   112fe:	f23e                	sd	a5,288(sp)
   11300:	10e12c23          	sw	a4,280(sp)
   11304:	0341                	addi	t1,t1,16
   11306:	feecd3e3          	bge	s9,a4,112ec <_svfprintf_r+0xb24>
   1130a:	0a10                	addi	a2,sp,272
   1130c:	85da                	mv	a1,s6
   1130e:	8552                	mv	a0,s4
   11310:	379070ef          	jal	ra,18e88 <__ssprint_r>
   11314:	e0051a63          	bnez	a0,10928 <_svfprintf_r+0x160>
   11318:	7792                	ld	a5,288(sp)
   1131a:	11812703          	lw	a4,280(sp)
   1131e:	8356                	mv	t1,s5
   11320:	b7f1                	j	112ec <_svfprintf_r+0xb24>
   11322:	413b883b          	subw	a6,s7,s3
   11326:	9d005de3          	blez	a6,10d00 <_svfprintf_r+0x538>
   1132a:	11812683          	lw	a3,280(sp)
   1132e:	050dd663          	bge	s11,a6,1137a <_svfprintf_r+0xbb2>
   11332:	489d                	li	a7,7
   11334:	a021                	j	1133c <_svfprintf_r+0xb74>
   11336:	3841                	addiw	a6,a6,-16
   11338:	050dd163          	bge	s11,a6,1137a <_svfprintf_r+0xbb2>
   1133c:	2685                	addiw	a3,a3,1
   1133e:	07c1                	addi	a5,a5,16
   11340:	01233023          	sd	s2,0(t1)
   11344:	01b33423          	sd	s11,8(t1)
   11348:	f23e                	sd	a5,288(sp)
   1134a:	10d12c23          	sw	a3,280(sp)
   1134e:	0341                	addi	t1,t1,16
   11350:	fed8d3e3          	bge	a7,a3,11336 <_svfprintf_r+0xb6e>
   11354:	0a10                	addi	a2,sp,272
   11356:	85da                	mv	a1,s6
   11358:	8552                	mv	a0,s4
   1135a:	fc42                	sd	a6,56(sp)
   1135c:	ec76                	sd	t4,24(sp)
   1135e:	32b070ef          	jal	ra,18e88 <__ssprint_r>
   11362:	dc051363          	bnez	a0,10928 <_svfprintf_r+0x160>
   11366:	7862                	ld	a6,56(sp)
   11368:	7792                	ld	a5,288(sp)
   1136a:	11812683          	lw	a3,280(sp)
   1136e:	3841                	addiw	a6,a6,-16
   11370:	8356                	mv	t1,s5
   11372:	489d                	li	a7,7
   11374:	6ee2                	ld	t4,24(sp)
   11376:	fd0dc3e3          	blt	s11,a6,1133c <_svfprintf_r+0xb74>
   1137a:	0016861b          	addiw	a2,a3,1
   1137e:	97c2                	add	a5,a5,a6
   11380:	01233023          	sd	s2,0(t1)
   11384:	01033423          	sd	a6,8(t1)
   11388:	f23e                	sd	a5,288(sp)
   1138a:	10c12c23          	sw	a2,280(sp)
   1138e:	469d                	li	a3,7
   11390:	0341                	addi	t1,t1,16
   11392:	96c6d7e3          	bge	a3,a2,10d00 <_svfprintf_r+0x538>
   11396:	0a10                	addi	a2,sp,272
   11398:	85da                	mv	a1,s6
   1139a:	8552                	mv	a0,s4
   1139c:	ec76                	sd	t4,24(sp)
   1139e:	2eb070ef          	jal	ra,18e88 <__ssprint_r>
   113a2:	d8051363          	bnez	a0,10928 <_svfprintf_r+0x160>
   113a6:	6ee2                	ld	t4,24(sp)
   113a8:	7792                	ld	a5,288(sp)
   113aa:	8356                	mv	t1,s5
   113ac:	418e8ebb          	subw	t4,t4,s8
   113b0:	95d05ce3          	blez	t4,10d08 <_svfprintf_r+0x540>
   113b4:	11812683          	lw	a3,280(sp)
   113b8:	05ddd463          	bge	s11,t4,11400 <_svfprintf_r+0xc38>
   113bc:	481d                	li	a6,7
   113be:	a021                	j	113c6 <_svfprintf_r+0xbfe>
   113c0:	3ec1                	addiw	t4,t4,-16
   113c2:	03dddf63          	bge	s11,t4,11400 <_svfprintf_r+0xc38>
   113c6:	2685                	addiw	a3,a3,1
   113c8:	07c1                	addi	a5,a5,16
   113ca:	01233023          	sd	s2,0(t1)
   113ce:	01b33423          	sd	s11,8(t1)
   113d2:	f23e                	sd	a5,288(sp)
   113d4:	10d12c23          	sw	a3,280(sp)
   113d8:	0341                	addi	t1,t1,16
   113da:	fed853e3          	bge	a6,a3,113c0 <_svfprintf_r+0xbf8>
   113de:	0a10                	addi	a2,sp,272
   113e0:	85da                	mv	a1,s6
   113e2:	8552                	mv	a0,s4
   113e4:	ec76                	sd	t4,24(sp)
   113e6:	2a3070ef          	jal	ra,18e88 <__ssprint_r>
   113ea:	d2051f63          	bnez	a0,10928 <_svfprintf_r+0x160>
   113ee:	6ee2                	ld	t4,24(sp)
   113f0:	7792                	ld	a5,288(sp)
   113f2:	11812683          	lw	a3,280(sp)
   113f6:	3ec1                	addiw	t4,t4,-16
   113f8:	8356                	mv	t1,s5
   113fa:	481d                	li	a6,7
   113fc:	fdddc5e3          	blt	s11,t4,113c6 <_svfprintf_r+0xbfe>
   11400:	0016861b          	addiw	a2,a3,1
   11404:	97f6                	add	a5,a5,t4
   11406:	01233023          	sd	s2,0(t1)
   1140a:	01d33423          	sd	t4,8(t1)
   1140e:	f23e                	sd	a5,288(sp)
   11410:	10c12c23          	sw	a2,280(sp)
   11414:	469d                	li	a3,7
   11416:	0341                	addi	t1,t1,16
   11418:	8ec6d8e3          	bge	a3,a2,10d08 <_svfprintf_r+0x540>
   1141c:	0a10                	addi	a2,sp,272
   1141e:	85da                	mv	a1,s6
   11420:	8552                	mv	a0,s4
   11422:	267070ef          	jal	ra,18e88 <__ssprint_r>
   11426:	d0051163          	bnez	a0,10928 <_svfprintf_r+0x160>
   1142a:	7792                	ld	a5,288(sp)
   1142c:	8356                	mv	t1,s5
   1142e:	b8e9                	j	10d08 <_svfprintf_r+0x540>
   11430:	86a2                	mv	a3,s0
   11432:	fe0ff06f          	j	10c12 <_svfprintf_r+0x44a>
   11436:	11812683          	lw	a3,280(sp)
   1143a:	0000bf97          	auipc	t6,0xb
   1143e:	3fef8f93          	addi	t6,t6,1022 # 1c838 <blanks.4525>
   11442:	439d                	li	t2,7
   11444:	010dc663          	blt	s11,a6,11450 <_svfprintf_r+0xc88>
   11448:	a889                	j	1149a <_svfprintf_r+0xcd2>
   1144a:	3841                	addiw	a6,a6,-16
   1144c:	050dd763          	bge	s11,a6,1149a <_svfprintf_r+0xcd2>
   11450:	2685                	addiw	a3,a3,1
   11452:	07c1                	addi	a5,a5,16
   11454:	01f33023          	sd	t6,0(t1)
   11458:	01b33423          	sd	s11,8(t1)
   1145c:	f23e                	sd	a5,288(sp)
   1145e:	10d12c23          	sw	a3,280(sp)
   11462:	0341                	addi	t1,t1,16
   11464:	fed3d3e3          	bge	t2,a3,1144a <_svfprintf_r+0xc82>
   11468:	0a10                	addi	a2,sp,272
   1146a:	85da                	mv	a1,s6
   1146c:	8552                	mv	a0,s4
   1146e:	e8fe                	sd	t6,80(sp)
   11470:	e4c2                	sd	a6,72(sp)
   11472:	e0f6                	sd	t4,64(sp)
   11474:	fc16                	sd	t0,56(sp)
   11476:	ec46                	sd	a7,24(sp)
   11478:	211070ef          	jal	ra,18e88 <__ssprint_r>
   1147c:	ca051663          	bnez	a0,10928 <_svfprintf_r+0x160>
   11480:	6826                	ld	a6,72(sp)
   11482:	7792                	ld	a5,288(sp)
   11484:	11812683          	lw	a3,280(sp)
   11488:	3841                	addiw	a6,a6,-16
   1148a:	8356                	mv	t1,s5
   1148c:	6fc6                	ld	t6,80(sp)
   1148e:	439d                	li	t2,7
   11490:	6e86                	ld	t4,64(sp)
   11492:	72e2                	ld	t0,56(sp)
   11494:	68e2                	ld	a7,24(sp)
   11496:	fb0dcde3          	blt	s11,a6,11450 <_svfprintf_r+0xc88>
   1149a:	0016861b          	addiw	a2,a3,1
   1149e:	97c2                	add	a5,a5,a6
   114a0:	01f33023          	sd	t6,0(t1)
   114a4:	01033423          	sd	a6,8(t1)
   114a8:	f23e                	sd	a5,288(sp)
   114aa:	10c12c23          	sw	a2,280(sp)
   114ae:	469d                	li	a3,7
   114b0:	0341                	addi	t1,t1,16
   114b2:	fec6d763          	bge	a3,a2,10ca0 <_svfprintf_r+0x4d8>
   114b6:	0a10                	addi	a2,sp,272
   114b8:	85da                	mv	a1,s6
   114ba:	8552                	mv	a0,s4
   114bc:	e0f6                	sd	t4,64(sp)
   114be:	fc16                	sd	t0,56(sp)
   114c0:	ec46                	sd	a7,24(sp)
   114c2:	1c7070ef          	jal	ra,18e88 <__ssprint_r>
   114c6:	c6051163          	bnez	a0,10928 <_svfprintf_r+0x160>
   114ca:	7792                	ld	a5,288(sp)
   114cc:	8356                	mv	t1,s5
   114ce:	6e86                	ld	t4,64(sp)
   114d0:	72e2                	ld	t0,56(sp)
   114d2:	68e2                	ld	a7,24(sp)
   114d4:	fccff06f          	j	10ca0 <_svfprintf_r+0x4d8>
   114d8:	0a10                	addi	a2,sp,272
   114da:	85da                	mv	a1,s6
   114dc:	8552                	mv	a0,s4
   114de:	fc76                	sd	t4,56(sp)
   114e0:	ec16                	sd	t0,24(sp)
   114e2:	1a7070ef          	jal	ra,18e88 <__ssprint_r>
   114e6:	c4051163          	bnez	a0,10928 <_svfprintf_r+0x160>
   114ea:	7792                	ld	a5,288(sp)
   114ec:	8356                	mv	t1,s5
   114ee:	7ee2                	ld	t4,56(sp)
   114f0:	62e2                	ld	t0,24(sp)
   114f2:	807ff06f          	j	10cf8 <_svfprintf_r+0x530>
   114f6:	11812703          	lw	a4,280(sp)
   114fa:	0000bf97          	auipc	t6,0xb
   114fe:	33ef8f93          	addi	t6,t6,830 # 1c838 <blanks.4525>
   11502:	4c1d                	li	s8,7
   11504:	008dc663          	blt	s11,s0,11510 <_svfprintf_r+0xd48>
   11508:	a081                	j	11548 <_svfprintf_r+0xd80>
   1150a:	3441                	addiw	s0,s0,-16
   1150c:	028dde63          	bge	s11,s0,11548 <_svfprintf_r+0xd80>
   11510:	2705                	addiw	a4,a4,1
   11512:	07c1                	addi	a5,a5,16
   11514:	01f33023          	sd	t6,0(t1)
   11518:	01b33423          	sd	s11,8(t1)
   1151c:	f23e                	sd	a5,288(sp)
   1151e:	10e12c23          	sw	a4,280(sp)
   11522:	0341                	addi	t1,t1,16
   11524:	feec53e3          	bge	s8,a4,1150a <_svfprintf_r+0xd42>
   11528:	0a10                	addi	a2,sp,272
   1152a:	85da                	mv	a1,s6
   1152c:	8552                	mv	a0,s4
   1152e:	ec7e                	sd	t6,24(sp)
   11530:	159070ef          	jal	ra,18e88 <__ssprint_r>
   11534:	be051a63          	bnez	a0,10928 <_svfprintf_r+0x160>
   11538:	3441                	addiw	s0,s0,-16
   1153a:	7792                	ld	a5,288(sp)
   1153c:	11812703          	lw	a4,280(sp)
   11540:	8356                	mv	t1,s5
   11542:	6fe2                	ld	t6,24(sp)
   11544:	fc8dc6e3          	blt	s11,s0,11510 <_svfprintf_r+0xd48>
   11548:	0017069b          	addiw	a3,a4,1
   1154c:	97a2                	add	a5,a5,s0
   1154e:	01f33023          	sd	t6,0(t1)
   11552:	00833423          	sd	s0,8(t1)
   11556:	f23e                	sd	a5,288(sp)
   11558:	10d12c23          	sw	a3,280(sp)
   1155c:	471d                	li	a4,7
   1155e:	fed75063          	bge	a4,a3,10d3e <_svfprintf_r+0x576>
   11562:	0a10                	addi	a2,sp,272
   11564:	85da                	mv	a1,s6
   11566:	8552                	mv	a0,s4
   11568:	121070ef          	jal	ra,18e88 <__ssprint_r>
   1156c:	ba051e63          	bnez	a0,10928 <_svfprintf_r+0x160>
   11570:	7792                	ld	a5,288(sp)
   11572:	fccff06f          	j	10d3e <_svfprintf_r+0x576>
   11576:	4705                	li	a4,1
   11578:	7ce78b63          	beq	a5,a4,11d4e <_svfprintf_r+0x1586>
   1157c:	4709                	li	a4,2
   1157e:	86a2                	mv	a3,s0
   11580:	e8e79f63          	bne	a5,a4,10c1e <_svfprintf_r+0x456>
   11584:	18c10c13          	addi	s8,sp,396
   11588:	8d62                	mv	s10,s8
   1158a:	7742                	ld	a4,48(sp)
   1158c:	00f9f793          	andi	a5,s3,15
   11590:	1d7d                	addi	s10,s10,-1
   11592:	97ba                	add	a5,a5,a4
   11594:	0007c783          	lbu	a5,0(a5)
   11598:	0049d993          	srli	s3,s3,0x4
   1159c:	00fd0023          	sb	a5,0(s10)
   115a0:	fe0995e3          	bnez	s3,1158a <_svfprintf_r+0xdc2>
   115a4:	41ac0c3b          	subw	s8,s8,s10
   115a8:	8436                	mv	s0,a3
   115aa:	c3cff06f          	j	109e6 <_svfprintf_r+0x21e>
   115ae:	55ae                	lw	a1,232(sp)
   115b0:	40b05b63          	blez	a1,119c6 <_svfprintf_r+0x11fe>
   115b4:	7722                	ld	a4,40(sp)
   115b6:	7686                	ld	a3,96(sp)
   115b8:	00070c1b          	sext.w	s8,a4
   115bc:	1ee6ca63          	blt	a3,a4,117b0 <_svfprintf_r+0xfe8>
   115c0:	03805263          	blez	s8,115e4 <_svfprintf_r+0xe1c>
   115c4:	11812683          	lw	a3,280(sp)
   115c8:	97e2                	add	a5,a5,s8
   115ca:	01a33023          	sd	s10,0(t1)
   115ce:	0016861b          	addiw	a2,a3,1
   115d2:	01833423          	sd	s8,8(t1)
   115d6:	f23e                	sd	a5,288(sp)
   115d8:	10c12c23          	sw	a2,280(sp)
   115dc:	469d                	li	a3,7
   115de:	0341                	addi	t1,t1,16
   115e0:	68c6c563          	blt	a3,a2,11c6a <_svfprintf_r+0x14a2>
   115e4:	fffc4693          	not	a3,s8
   115e8:	7706                	ld	a4,96(sp)
   115ea:	96fd                	srai	a3,a3,0x3f
   115ec:	00dc7c33          	and	s8,s8,a3
   115f0:	41870c3b          	subw	s8,a4,s8
   115f4:	23804d63          	bgtz	s8,1182e <_svfprintf_r+0x1066>
   115f8:	7706                	ld	a4,96(sp)
   115fa:	40047693          	andi	a3,s0,1024
   115fe:	00ed0c33          	add	s8,s10,a4
   11602:	26069763          	bnez	a3,11870 <_svfprintf_r+0x10a8>
   11606:	56ae                	lw	a3,232(sp)
   11608:	7722                	ld	a4,40(sp)
   1160a:	00e6c663          	blt	a3,a4,11616 <_svfprintf_r+0xe4e>
   1160e:	00147613          	andi	a2,s0,1
   11612:	6a060863          	beqz	a2,11cc2 <_svfprintf_r+0x14fa>
   11616:	660a                	ld	a2,128(sp)
   11618:	7766                	ld	a4,120(sp)
   1161a:	0341                	addi	t1,t1,16
   1161c:	fec33823          	sd	a2,-16(t1)
   11620:	11812603          	lw	a2,280(sp)
   11624:	97ba                	add	a5,a5,a4
   11626:	fee33c23          	sd	a4,-8(t1)
   1162a:	0016059b          	addiw	a1,a2,1
   1162e:	f23e                	sd	a5,288(sp)
   11630:	10b12c23          	sw	a1,280(sp)
   11634:	461d                	li	a2,7
   11636:	04b646e3          	blt	a2,a1,11e82 <_svfprintf_r+0x16ba>
   1163a:	7722                	ld	a4,40(sp)
   1163c:	40d7063b          	subw	a2,a4,a3
   11640:	976a                	add	a4,a4,s10
   11642:	4187073b          	subw	a4,a4,s8
   11646:	86b2                	mv	a3,a2
   11648:	00c75363          	bge	a4,a2,1164e <_svfprintf_r+0xe86>
   1164c:	86ba                	mv	a3,a4
   1164e:	00068c9b          	sext.w	s9,a3
   11652:	03905263          	blez	s9,11676 <_svfprintf_r+0xeae>
   11656:	11812683          	lw	a3,280(sp)
   1165a:	97e6                	add	a5,a5,s9
   1165c:	01833023          	sd	s8,0(t1)
   11660:	0016859b          	addiw	a1,a3,1
   11664:	01933423          	sd	s9,8(t1)
   11668:	f23e                	sd	a5,288(sp)
   1166a:	10b12c23          	sw	a1,280(sp)
   1166e:	469d                	li	a3,7
   11670:	0341                	addi	t1,t1,16
   11672:	04b6c7e3          	blt	a3,a1,11ec0 <_svfprintf_r+0x16f8>
   11676:	fffccc13          	not	s8,s9
   1167a:	43fc5c13          	srai	s8,s8,0x3f
   1167e:	018cfc33          	and	s8,s9,s8
   11682:	41860c3b          	subw	s8,a2,s8
   11686:	eb805663          	blez	s8,10d32 <_svfprintf_r+0x56a>
   1168a:	11812703          	lw	a4,280(sp)
   1168e:	3f8dd363          	bge	s11,s8,11a74 <_svfprintf_r+0x12ac>
   11692:	4c9d                	li	s9,7
   11694:	a021                	j	1169c <_svfprintf_r+0xed4>
   11696:	3c41                	addiw	s8,s8,-16
   11698:	3d8dde63          	bge	s11,s8,11a74 <_svfprintf_r+0x12ac>
   1169c:	2705                	addiw	a4,a4,1
   1169e:	07c1                	addi	a5,a5,16
   116a0:	01233023          	sd	s2,0(t1)
   116a4:	01b33423          	sd	s11,8(t1)
   116a8:	f23e                	sd	a5,288(sp)
   116aa:	10e12c23          	sw	a4,280(sp)
   116ae:	0341                	addi	t1,t1,16
   116b0:	feecd3e3          	bge	s9,a4,11696 <_svfprintf_r+0xece>
   116b4:	0a10                	addi	a2,sp,272
   116b6:	85da                	mv	a1,s6
   116b8:	8552                	mv	a0,s4
   116ba:	7ce070ef          	jal	ra,18e88 <__ssprint_r>
   116be:	a6051563          	bnez	a0,10928 <_svfprintf_r+0x160>
   116c2:	7792                	ld	a5,288(sp)
   116c4:	11812703          	lw	a4,280(sp)
   116c8:	8356                	mv	t1,s5
   116ca:	b7f1                	j	11696 <_svfprintf_r+0xece>
   116cc:	00147513          	andi	a0,s0,1
   116d0:	ee051763          	bnez	a0,10dbe <_svfprintf_r+0x5f6>
   116d4:	00b33423          	sd	a1,8(t1)
   116d8:	f23e                	sd	a5,288(sp)
   116da:	10d12c23          	sw	a3,280(sp)
   116de:	471d                	li	a4,7
   116e0:	2cd74163          	blt	a4,a3,119a2 <_svfprintf_r+0x11da>
   116e4:	002f0c9b          	addiw	s9,t5,2
   116e8:	02030313          	addi	t1,t1,32
   116ec:	f60ff06f          	j	10e4c <_svfprintf_r+0x684>
   116f0:	f5105e63          	blez	a7,10e4c <_svfprintf_r+0x684>
   116f4:	431dd7e3          	bge	s11,a7,12322 <_svfprintf_r+0x1b5a>
   116f8:	4c9d                	li	s9,7
   116fa:	a031                	j	11706 <_svfprintf_r+0xf3e>
   116fc:	38c1                	addiw	a7,a7,-16
   116fe:	491dda63          	bge	s11,a7,11b92 <_svfprintf_r+0x13ca>
   11702:	00180e9b          	addiw	t4,a6,1
   11706:	07c1                	addi	a5,a5,16
   11708:	012c3023          	sd	s2,0(s8)
   1170c:	01bc3423          	sd	s11,8(s8)
   11710:	f23e                	sd	a5,288(sp)
   11712:	000e881b          	sext.w	a6,t4
   11716:	11d12c23          	sw	t4,280(sp)
   1171a:	0c41                	addi	s8,s8,16
   1171c:	ff0cd0e3          	bge	s9,a6,116fc <_svfprintf_r+0xf34>
   11720:	0a10                	addi	a2,sp,272
   11722:	85da                	mv	a1,s6
   11724:	8552                	mv	a0,s4
   11726:	ec46                	sd	a7,24(sp)
   11728:	760070ef          	jal	ra,18e88 <__ssprint_r>
   1172c:	9e051e63          	bnez	a0,10928 <_svfprintf_r+0x160>
   11730:	7792                	ld	a5,288(sp)
   11732:	11812803          	lw	a6,280(sp)
   11736:	8c56                	mv	s8,s5
   11738:	68e2                	ld	a7,24(sp)
   1173a:	b7c9                	j	116fc <_svfprintf_r+0xf34>
   1173c:	89ea                	mv	s3,s10
   1173e:	976ff06f          	j	108b4 <_svfprintf_r+0xec>
   11742:	0a10                	addi	a2,sp,272
   11744:	85da                	mv	a1,s6
   11746:	8552                	mv	a0,s4
   11748:	740070ef          	jal	ra,18e88 <__ssprint_r>
   1174c:	9c051e63          	bnez	a0,10928 <_svfprintf_r+0x160>
   11750:	7792                	ld	a5,288(sp)
   11752:	11812683          	lw	a3,280(sp)
   11756:	8c56                	mv	s8,s5
   11758:	e78ff06f          	j	10dd0 <_svfprintf_r+0x608>
   1175c:	0a10                	addi	a2,sp,272
   1175e:	85da                	mv	a1,s6
   11760:	8552                	mv	a0,s4
   11762:	726070ef          	jal	ra,18e88 <__ssprint_r>
   11766:	9c051163          	bnez	a0,10928 <_svfprintf_r+0x160>
   1176a:	7792                	ld	a5,288(sp)
   1176c:	11812803          	lw	a6,280(sp)
   11770:	8c56                	mv	s8,s5
   11772:	e7eff06f          	j	10df0 <_svfprintf_r+0x628>
   11776:	03000793          	li	a5,48
   1177a:	18f105a3          	sb	a5,395(sp)
   1177e:	18b10d13          	addi	s10,sp,395
   11782:	a64ff06f          	j	109e6 <_svfprintf_r+0x21e>
   11786:	86a2                	mv	a3,s0
   11788:	c6aff06f          	j	10bf2 <_svfprintf_r+0x42a>
   1178c:	67c2                	ld	a5,16(sp)
   1178e:	07bd                	addi	a5,a5,15
   11790:	9bc1                	andi	a5,a5,-16
   11792:	6394                	ld	a3,0(a5)
   11794:	6798                	ld	a4,8(a5)
   11796:	07c1                	addi	a5,a5,16
   11798:	e83e                	sd	a5,16(sp)
   1179a:	e236                	sd	a3,256(sp)
   1179c:	e63a                	sd	a4,264(sp)
   1179e:	b095                	j	11002 <_svfprintf_r+0x83a>
   117a0:	86a2                	mv	a3,s0
   117a2:	b44ff06f          	j	10ae6 <_svfprintf_r+0x31e>
   117a6:	67c2                	ld	a5,16(sp)
   117a8:	0007b983          	ld	s3,0(a5)
   117ac:	9ecff06f          	j	10998 <_svfprintf_r+0x1d0>
   117b0:	00068c1b          	sext.w	s8,a3
   117b4:	e18048e3          	bgtz	s8,115c4 <_svfprintf_r+0xdfc>
   117b8:	b535                	j	115e4 <_svfprintf_r+0xe1c>
   117ba:	0a10                	addi	a2,sp,272
   117bc:	85da                	mv	a1,s6
   117be:	8552                	mv	a0,s4
   117c0:	6c8070ef          	jal	ra,18e88 <__ssprint_r>
   117c4:	96051263          	bnez	a0,10928 <_svfprintf_r+0x160>
   117c8:	7792                	ld	a5,288(sp)
   117ca:	8356                	mv	t1,s5
   117cc:	b629                	j	112d6 <_svfprintf_r+0xb0e>
   117ce:	20046413          	ori	s0,s0,512
   117d2:	0014cf03          	lbu	t5,1(s1)
   117d6:	2401                	sext.w	s0,s0
   117d8:	0485                	addi	s1,s1,1
   117da:	8f2ff06f          	j	108cc <_svfprintf_r+0x104>
   117de:	02046413          	ori	s0,s0,32
   117e2:	0014cf03          	lbu	t5,1(s1)
   117e6:	2401                	sext.w	s0,s0
   117e8:	0485                	addi	s1,s1,1
   117ea:	8e2ff06f          	j	108cc <_svfprintf_r+0x104>
   117ee:	04000593          	li	a1,64
   117f2:	8552                	mv	a0,s4
   117f4:	0ef050ef          	jal	ra,170e2 <_malloc_r>
   117f8:	00ab3023          	sd	a0,0(s6)
   117fc:	00ab3c23          	sd	a0,24(s6)
   11800:	340508e3          	beqz	a0,12350 <_svfprintf_r+0x1b88>
   11804:	04000793          	li	a5,64
   11808:	02fb2023          	sw	a5,32(s6)
   1180c:	824ff06f          	j	10830 <_svfprintf_r+0x68>
   11810:	000e871b          	sext.w	a4,t4
   11814:	4799                	li	a5,6
   11816:	4ae7e463          	bltu	a5,a4,11cbe <_svfprintf_r+0x14f6>
   1181a:	000e8c1b          	sext.w	s8,t4
   1181e:	89e2                	mv	s3,s8
   11820:	e836                	sd	a3,16(sp)
   11822:	0000bd17          	auipc	s10,0xb
   11826:	0bed0d13          	addi	s10,s10,190 # 1c8e0 <zeroes.4526+0x98>
   1182a:	c4eff06f          	j	10c78 <_svfprintf_r+0x4b0>
   1182e:	11812683          	lw	a3,280(sp)
   11832:	3f8dde63          	bge	s11,s8,11c2e <_svfprintf_r+0x1466>
   11836:	4c9d                	li	s9,7
   11838:	a021                	j	11840 <_svfprintf_r+0x1078>
   1183a:	3c41                	addiw	s8,s8,-16
   1183c:	3f8dd963          	bge	s11,s8,11c2e <_svfprintf_r+0x1466>
   11840:	2685                	addiw	a3,a3,1
   11842:	07c1                	addi	a5,a5,16
   11844:	01233023          	sd	s2,0(t1)
   11848:	01b33423          	sd	s11,8(t1)
   1184c:	f23e                	sd	a5,288(sp)
   1184e:	10d12c23          	sw	a3,280(sp)
   11852:	0341                	addi	t1,t1,16
   11854:	fedcd3e3          	bge	s9,a3,1183a <_svfprintf_r+0x1072>
   11858:	0a10                	addi	a2,sp,272
   1185a:	85da                	mv	a1,s6
   1185c:	8552                	mv	a0,s4
   1185e:	62a070ef          	jal	ra,18e88 <__ssprint_r>
   11862:	8c051363          	bnez	a0,10928 <_svfprintf_r+0x160>
   11866:	7792                	ld	a5,288(sp)
   11868:	11812683          	lw	a3,280(sp)
   1186c:	8356                	mv	t1,s5
   1186e:	b7f1                	j	1183a <_svfprintf_r+0x1072>
   11870:	7722                	ld	a4,40(sp)
   11872:	4c9d                	li	s9,7
   11874:	976a                	add	a4,a4,s10
   11876:	fc3a                	sd	a4,56(sp)
   11878:	7726                	ld	a4,104(sp)
   1187a:	cb51                	beqz	a4,1190e <_svfprintf_r+0x1146>
   1187c:	6766                	ld	a4,88(sp)
   1187e:	eb59                	bnez	a4,11914 <_svfprintf_r+0x114c>
   11880:	7746                	ld	a4,112(sp)
   11882:	177d                	addi	a4,a4,-1
   11884:	f8ba                	sd	a4,112(sp)
   11886:	7726                	ld	a4,104(sp)
   11888:	377d                	addiw	a4,a4,-1
   1188a:	f4ba                	sd	a4,104(sp)
   1188c:	66ea                	ld	a3,152(sp)
   1188e:	672a                	ld	a4,136(sp)
   11890:	0341                	addi	t1,t1,16
   11892:	fed33823          	sd	a3,-16(t1)
   11896:	11812683          	lw	a3,280(sp)
   1189a:	97ba                	add	a5,a5,a4
   1189c:	fee33c23          	sd	a4,-8(t1)
   118a0:	0016861b          	addiw	a2,a3,1
   118a4:	f23e                	sd	a5,288(sp)
   118a6:	10c12c23          	sw	a2,280(sp)
   118aa:	0eccc163          	blt	s9,a2,1198c <_svfprintf_r+0x11c4>
   118ae:	7746                	ld	a4,112(sp)
   118b0:	00074603          	lbu	a2,0(a4)
   118b4:	7762                	ld	a4,56(sp)
   118b6:	0006069b          	sext.w	a3,a2
   118ba:	418705bb          	subw	a1,a4,s8
   118be:	0006881b          	sext.w	a6,a3
   118c2:	00d5d463          	bge	a1,a3,118ca <_svfprintf_r+0x1102>
   118c6:	0005881b          	sext.w	a6,a1
   118ca:	03005663          	blez	a6,118f6 <_svfprintf_r+0x112e>
   118ce:	11812683          	lw	a3,280(sp)
   118d2:	97c2                	add	a5,a5,a6
   118d4:	01833023          	sd	s8,0(t1)
   118d8:	0016861b          	addiw	a2,a3,1
   118dc:	01033423          	sd	a6,8(t1)
   118e0:	f23e                	sd	a5,288(sp)
   118e2:	10c12c23          	sw	a2,280(sp)
   118e6:	18cccf63          	blt	s9,a2,11a84 <_svfprintf_r+0x12bc>
   118ea:	7746                	ld	a4,112(sp)
   118ec:	0341                	addi	t1,t1,16
   118ee:	00074603          	lbu	a2,0(a4)
   118f2:	0006069b          	sext.w	a3,a2
   118f6:	fff84593          	not	a1,a6
   118fa:	95fd                	srai	a1,a1,0x3f
   118fc:	00b87833          	and	a6,a6,a1
   11900:	410686bb          	subw	a3,a3,a6
   11904:	00d04c63          	bgtz	a3,1191c <_svfprintf_r+0x1154>
   11908:	9c32                	add	s8,s8,a2
   1190a:	7726                	ld	a4,104(sp)
   1190c:	fb25                	bnez	a4,1187c <_svfprintf_r+0x10b4>
   1190e:	6766                	ld	a4,88(sp)
   11910:	44070263          	beqz	a4,11d54 <_svfprintf_r+0x158c>
   11914:	6766                	ld	a4,88(sp)
   11916:	377d                	addiw	a4,a4,-1
   11918:	ecba                	sd	a4,88(sp)
   1191a:	bf8d                	j	1188c <_svfprintf_r+0x10c4>
   1191c:	11812603          	lw	a2,280(sp)
   11920:	00ddc663          	blt	s11,a3,1192c <_svfprintf_r+0x1164>
   11924:	a089                	j	11966 <_svfprintf_r+0x119e>
   11926:	36c1                	addiw	a3,a3,-16
   11928:	02dddf63          	bge	s11,a3,11966 <_svfprintf_r+0x119e>
   1192c:	2605                	addiw	a2,a2,1
   1192e:	07c1                	addi	a5,a5,16
   11930:	01233023          	sd	s2,0(t1)
   11934:	01b33423          	sd	s11,8(t1)
   11938:	f23e                	sd	a5,288(sp)
   1193a:	10c12c23          	sw	a2,280(sp)
   1193e:	0341                	addi	t1,t1,16
   11940:	feccd3e3          	bge	s9,a2,11926 <_svfprintf_r+0x115e>
   11944:	0a10                	addi	a2,sp,272
   11946:	85da                	mv	a1,s6
   11948:	8552                	mv	a0,s4
   1194a:	ec36                	sd	a3,24(sp)
   1194c:	53c070ef          	jal	ra,18e88 <__ssprint_r>
   11950:	c119                	beqz	a0,11956 <_svfprintf_r+0x118e>
   11952:	fd7fe06f          	j	10928 <_svfprintf_r+0x160>
   11956:	66e2                	ld	a3,24(sp)
   11958:	7792                	ld	a5,288(sp)
   1195a:	11812603          	lw	a2,280(sp)
   1195e:	36c1                	addiw	a3,a3,-16
   11960:	8356                	mv	t1,s5
   11962:	fcddc5e3          	blt	s11,a3,1192c <_svfprintf_r+0x1164>
   11966:	2605                	addiw	a2,a2,1
   11968:	97b6                	add	a5,a5,a3
   1196a:	00d33423          	sd	a3,8(t1)
   1196e:	01233023          	sd	s2,0(t1)
   11972:	f23e                	sd	a5,288(sp)
   11974:	0006069b          	sext.w	a3,a2
   11978:	10c12c23          	sw	a2,280(sp)
   1197c:	4cdccf63          	blt	s9,a3,11e5a <_svfprintf_r+0x1692>
   11980:	7746                	ld	a4,112(sp)
   11982:	0341                	addi	t1,t1,16
   11984:	00074603          	lbu	a2,0(a4)
   11988:	9c32                	add	s8,s8,a2
   1198a:	b741                	j	1190a <_svfprintf_r+0x1142>
   1198c:	0a10                	addi	a2,sp,272
   1198e:	85da                	mv	a1,s6
   11990:	8552                	mv	a0,s4
   11992:	4f6070ef          	jal	ra,18e88 <__ssprint_r>
   11996:	c119                	beqz	a0,1199c <_svfprintf_r+0x11d4>
   11998:	f91fe06f          	j	10928 <_svfprintf_r+0x160>
   1199c:	7792                	ld	a5,288(sp)
   1199e:	8356                	mv	t1,s5
   119a0:	b739                	j	118ae <_svfprintf_r+0x10e6>
   119a2:	0a10                	addi	a2,sp,272
   119a4:	85da                	mv	a1,s6
   119a6:	8552                	mv	a0,s4
   119a8:	4e0070ef          	jal	ra,18e88 <__ssprint_r>
   119ac:	c119                	beqz	a0,119b2 <_svfprintf_r+0x11ea>
   119ae:	f7bfe06f          	j	10928 <_svfprintf_r+0x160>
   119b2:	11812f03          	lw	t5,280(sp)
   119b6:	7792                	ld	a5,288(sp)
   119b8:	1a010313          	addi	t1,sp,416
   119bc:	001f0c9b          	addiw	s9,t5,1
   119c0:	8c56                	mv	s8,s5
   119c2:	c8aff06f          	j	10e4c <_svfprintf_r+0x684>
   119c6:	11812683          	lw	a3,280(sp)
   119ca:	0000b617          	auipc	a2,0xb
   119ce:	f1e60613          	addi	a2,a2,-226 # 1c8e8 <zeroes.4526+0xa0>
   119d2:	00c33023          	sd	a2,0(t1)
   119d6:	2685                	addiw	a3,a3,1
   119d8:	4605                	li	a2,1
   119da:	0785                	addi	a5,a5,1
   119dc:	00c33423          	sd	a2,8(t1)
   119e0:	10d12c23          	sw	a3,280(sp)
   119e4:	0006861b          	sext.w	a2,a3
   119e8:	f23e                	sd	a5,288(sp)
   119ea:	469d                	li	a3,7
   119ec:	0341                	addi	t1,t1,16
   119ee:	04c6cc63          	blt	a3,a2,11a46 <_svfprintf_r+0x127e>
   119f2:	12059963          	bnez	a1,11b24 <_svfprintf_r+0x135c>
   119f6:	7722                	ld	a4,40(sp)
   119f8:	00147693          	andi	a3,s0,1
   119fc:	8ed9                	or	a3,a3,a4
   119fe:	b2068a63          	beqz	a3,10d32 <_svfprintf_r+0x56a>
   11a02:	11812603          	lw	a2,280(sp)
   11a06:	7766                	ld	a4,120(sp)
   11a08:	668a                	ld	a3,128(sp)
   11a0a:	97ba                	add	a5,a5,a4
   11a0c:	00d33023          	sd	a3,0(t1)
   11a10:	0016069b          	addiw	a3,a2,1
   11a14:	00e33423          	sd	a4,8(t1)
   11a18:	f23e                	sd	a5,288(sp)
   11a1a:	10d12c23          	sw	a3,280(sp)
   11a1e:	461d                	li	a2,7
   11a20:	30d64463          	blt	a2,a3,11d28 <_svfprintf_r+0x1560>
   11a24:	0341                	addi	t1,t1,16
   11a26:	7722                	ld	a4,40(sp)
   11a28:	0016861b          	addiw	a2,a3,1
   11a2c:	01a33023          	sd	s10,0(t1)
   11a30:	97ba                	add	a5,a5,a4
   11a32:	00e33423          	sd	a4,8(t1)
   11a36:	f23e                	sd	a5,288(sp)
   11a38:	10c12c23          	sw	a2,280(sp)
   11a3c:	471d                	li	a4,7
   11a3e:	aec75963          	bge	a4,a2,10d30 <_svfprintf_r+0x568>
   11a42:	c24ff06f          	j	10e66 <_svfprintf_r+0x69e>
   11a46:	0a10                	addi	a2,sp,272
   11a48:	85da                	mv	a1,s6
   11a4a:	8552                	mv	a0,s4
   11a4c:	43c070ef          	jal	ra,18e88 <__ssprint_r>
   11a50:	c119                	beqz	a0,11a56 <_svfprintf_r+0x128e>
   11a52:	ed7fe06f          	j	10928 <_svfprintf_r+0x160>
   11a56:	55ae                	lw	a1,232(sp)
   11a58:	7792                	ld	a5,288(sp)
   11a5a:	8356                	mv	t1,s5
   11a5c:	bf59                	j	119f2 <_svfprintf_r+0x122a>
   11a5e:	0a10                	addi	a2,sp,272
   11a60:	85da                	mv	a1,s6
   11a62:	8552                	mv	a0,s4
   11a64:	424070ef          	jal	ra,18e88 <__ssprint_r>
   11a68:	c119                	beqz	a0,11a6e <_svfprintf_r+0x12a6>
   11a6a:	ebffe06f          	j	10928 <_svfprintf_r+0x160>
   11a6e:	8356                	mv	t1,s5
   11a70:	82dff06f          	j	1129c <_svfprintf_r+0xad4>
   11a74:	0017069b          	addiw	a3,a4,1
   11a78:	8736                	mv	a4,a3
   11a7a:	97e2                	add	a5,a5,s8
   11a7c:	01233023          	sd	s2,0(t1)
   11a80:	aa0ff06f          	j	10d20 <_svfprintf_r+0x558>
   11a84:	0a10                	addi	a2,sp,272
   11a86:	85da                	mv	a1,s6
   11a88:	8552                	mv	a0,s4
   11a8a:	ec42                	sd	a6,24(sp)
   11a8c:	3fc070ef          	jal	ra,18e88 <__ssprint_r>
   11a90:	c119                	beqz	a0,11a96 <_svfprintf_r+0x12ce>
   11a92:	e97fe06f          	j	10928 <_svfprintf_r+0x160>
   11a96:	77c6                	ld	a5,112(sp)
   11a98:	8356                	mv	t1,s5
   11a9a:	6862                	ld	a6,24(sp)
   11a9c:	0007c603          	lbu	a2,0(a5)
   11aa0:	7792                	ld	a5,288(sp)
   11aa2:	0006069b          	sext.w	a3,a2
   11aa6:	bd81                	j	118f6 <_svfprintf_r+0x112e>
   11aa8:	6512                	ld	a0,256(sp)
   11aaa:	65b2                	ld	a1,264(sp)
   11aac:	4601                	li	a2,0
   11aae:	4681                	li	a3,0
   11ab0:	ec1a                	sd	t1,24(sp)
   11ab2:	792090ef          	jal	ra,1b244 <__letf2>
   11ab6:	6362                	ld	t1,24(sp)
   11ab8:	3c054063          	bltz	a0,11e78 <_svfprintf_r+0x16b0>
   11abc:	0df14783          	lbu	a5,223(sp)
   11ac0:	04700693          	li	a3,71
   11ac4:	0000bd17          	auipc	s10,0xb
   11ac8:	dccd0d13          	addi	s10,s10,-564 # 1c890 <zeroes.4526+0x48>
   11acc:	1996ca63          	blt	a3,s9,11c60 <_svfprintf_r+0x1498>
   11ad0:	f7f47413          	andi	s0,s0,-129
   11ad4:	f002                	sd	zero,32(sp)
   11ad6:	ec82                	sd	zero,88(sp)
   11ad8:	f482                	sd	zero,104(sp)
   11ada:	f082                	sd	zero,96(sp)
   11adc:	2401                	sext.w	s0,s0
   11ade:	498d                	li	s3,3
   11ae0:	4c0d                	li	s8,3
   11ae2:	4e81                	li	t4,0
   11ae4:	c399                	beqz	a5,11aea <_svfprintf_r+0x1322>
   11ae6:	f1dfe06f          	j	10a02 <_svfprintf_r+0x23a>
   11aea:	998ff06f          	j	10c82 <_svfprintf_r+0x4ba>
   11aee:	856a                	mv	a0,s10
   11af0:	ec1a                	sd	t1,24(sp)
   11af2:	e836                	sd	a3,16(sp)
   11af4:	c3dfe0ef          	jal	ra,10730 <strlen>
   11af8:	00050c1b          	sext.w	s8,a0
   11afc:	fffc4993          	not	s3,s8
   11b00:	0df14783          	lbu	a5,223(sp)
   11b04:	43f9d993          	srai	s3,s3,0x3f
   11b08:	013c79b3          	and	s3,s8,s3
   11b0c:	f002                	sd	zero,32(sp)
   11b0e:	ec82                	sd	zero,88(sp)
   11b10:	f482                	sd	zero,104(sp)
   11b12:	f082                	sd	zero,96(sp)
   11b14:	2981                	sext.w	s3,s3
   11b16:	4e81                	li	t4,0
   11b18:	6362                	ld	t1,24(sp)
   11b1a:	c399                	beqz	a5,11b20 <_svfprintf_r+0x1358>
   11b1c:	ee7fe06f          	j	10a02 <_svfprintf_r+0x23a>
   11b20:	962ff06f          	j	10c82 <_svfprintf_r+0x4ba>
   11b24:	11812603          	lw	a2,280(sp)
   11b28:	7766                	ld	a4,120(sp)
   11b2a:	668a                	ld	a3,128(sp)
   11b2c:	0341                	addi	t1,t1,16
   11b2e:	97ba                	add	a5,a5,a4
   11b30:	fed33823          	sd	a3,-16(t1)
   11b34:	0016069b          	addiw	a3,a2,1
   11b38:	fee33c23          	sd	a4,-8(t1)
   11b3c:	f23e                	sd	a5,288(sp)
   11b3e:	10d12c23          	sw	a3,280(sp)
   11b42:	461d                	li	a2,7
   11b44:	1ed64263          	blt	a2,a3,11d28 <_svfprintf_r+0x1560>
   11b48:	ec05dfe3          	bgez	a1,11a26 <_svfprintf_r+0x125e>
   11b4c:	5641                	li	a2,-16
   11b4e:	40b00c3b          	negw	s8,a1
   11b52:	60c5d963          	bge	a1,a2,12164 <_svfprintf_r+0x199c>
   11b56:	4c9d                	li	s9,7
   11b58:	a021                	j	11b60 <_svfprintf_r+0x1398>
   11b5a:	3c41                	addiw	s8,s8,-16
   11b5c:	618dd463          	bge	s11,s8,12164 <_svfprintf_r+0x199c>
   11b60:	2685                	addiw	a3,a3,1
   11b62:	07c1                	addi	a5,a5,16
   11b64:	01233023          	sd	s2,0(t1)
   11b68:	01b33423          	sd	s11,8(t1)
   11b6c:	f23e                	sd	a5,288(sp)
   11b6e:	10d12c23          	sw	a3,280(sp)
   11b72:	0341                	addi	t1,t1,16
   11b74:	fedcd3e3          	bge	s9,a3,11b5a <_svfprintf_r+0x1392>
   11b78:	0a10                	addi	a2,sp,272
   11b7a:	85da                	mv	a1,s6
   11b7c:	8552                	mv	a0,s4
   11b7e:	30a070ef          	jal	ra,18e88 <__ssprint_r>
   11b82:	c119                	beqz	a0,11b88 <_svfprintf_r+0x13c0>
   11b84:	da5fe06f          	j	10928 <_svfprintf_r+0x160>
   11b88:	7792                	ld	a5,288(sp)
   11b8a:	11812683          	lw	a3,280(sp)
   11b8e:	8356                	mv	t1,s5
   11b90:	b7e9                	j	11b5a <_svfprintf_r+0x1392>
   11b92:	00180c9b          	addiw	s9,a6,1
   11b96:	010c0713          	addi	a4,s8,16
   11b9a:	97c6                	add	a5,a5,a7
   11b9c:	012c3023          	sd	s2,0(s8)
   11ba0:	011c3423          	sd	a7,8(s8)
   11ba4:	f23e                	sd	a5,288(sp)
   11ba6:	11912c23          	sw	s9,280(sp)
   11baa:	469d                	li	a3,7
   11bac:	df96cbe3          	blt	a3,s9,119a2 <_svfprintf_r+0x11da>
   11bb0:	2c85                	addiw	s9,s9,1
   11bb2:	01070313          	addi	t1,a4,16
   11bb6:	8c3a                	mv	s8,a4
   11bb8:	a94ff06f          	j	10e4c <_svfprintf_r+0x684>
   11bbc:	20047793          	andi	a5,s0,512
   11bc0:	14078a63          	beqz	a5,11d14 <_svfprintf_r+0x154c>
   11bc4:	0ff9f993          	andi	s3,s3,255
   11bc8:	dd1fe06f          	j	10998 <_svfprintf_r+0x1d0>
   11bcc:	20047793          	andi	a5,s0,512
   11bd0:	12078c63          	beqz	a5,11d08 <_svfprintf_r+0x1540>
   11bd4:	0ff9f993          	andi	s3,s3,255
   11bd8:	e83a                	sd	a4,16(sp)
   11bda:	f91fe06f          	j	10b6a <_svfprintf_r+0x3a2>
   11bde:	20047793          	andi	a5,s0,512
   11be2:	10078b63          	beqz	a5,11cf8 <_svfprintf_r+0x1530>
   11be6:	0ff9f993          	andi	s3,s3,255
   11bea:	e83a                	sd	a4,16(sp)
   11bec:	86a2                	mv	a3,s0
   11bee:	4785                	li	a5,1
   11bf0:	dcffe06f          	j	109be <_svfprintf_r+0x1f6>
   11bf4:	20047793          	andi	a5,s0,512
   11bf8:	cbe5                	beqz	a5,11ce8 <_svfprintf_r+0x1520>
   11bfa:	67c2                	ld	a5,16(sp)
   11bfc:	86a2                	mv	a3,s0
   11bfe:	e83a                	sd	a4,16(sp)
   11c00:	00078983          	lb	s3,0(a5)
   11c04:	87ce                	mv	a5,s3
   11c06:	fadfe06f          	j	10bb2 <_svfprintf_r+0x3ea>
   11c0a:	67b2                	ld	a5,264(sp)
   11c0c:	1007c963          	bltz	a5,11d1e <_svfprintf_r+0x1556>
   11c10:	0df14783          	lbu	a5,223(sp)
   11c14:	04700693          	li	a3,71
   11c18:	0000bd17          	auipc	s10,0xb
   11c1c:	c88d0d13          	addi	s10,s10,-888 # 1c8a0 <zeroes.4526+0x58>
   11c20:	eb96d8e3          	bge	a3,s9,11ad0 <_svfprintf_r+0x1308>
   11c24:	0000bd17          	auipc	s10,0xb
   11c28:	c84d0d13          	addi	s10,s10,-892 # 1c8a8 <zeroes.4526+0x60>
   11c2c:	b555                	j	11ad0 <_svfprintf_r+0x1308>
   11c2e:	0016861b          	addiw	a2,a3,1
   11c32:	97e2                	add	a5,a5,s8
   11c34:	01233023          	sd	s2,0(t1)
   11c38:	01833423          	sd	s8,8(t1)
   11c3c:	f23e                	sd	a5,288(sp)
   11c3e:	10c12c23          	sw	a2,280(sp)
   11c42:	469d                	li	a3,7
   11c44:	0341                	addi	t1,t1,16
   11c46:	9ac6d9e3          	bge	a3,a2,115f8 <_svfprintf_r+0xe30>
   11c4a:	0a10                	addi	a2,sp,272
   11c4c:	85da                	mv	a1,s6
   11c4e:	8552                	mv	a0,s4
   11c50:	238070ef          	jal	ra,18e88 <__ssprint_r>
   11c54:	c119                	beqz	a0,11c5a <_svfprintf_r+0x1492>
   11c56:	cd3fe06f          	j	10928 <_svfprintf_r+0x160>
   11c5a:	7792                	ld	a5,288(sp)
   11c5c:	8356                	mv	t1,s5
   11c5e:	ba69                	j	115f8 <_svfprintf_r+0xe30>
   11c60:	0000bd17          	auipc	s10,0xb
   11c64:	c38d0d13          	addi	s10,s10,-968 # 1c898 <zeroes.4526+0x50>
   11c68:	b5a5                	j	11ad0 <_svfprintf_r+0x1308>
   11c6a:	0a10                	addi	a2,sp,272
   11c6c:	85da                	mv	a1,s6
   11c6e:	8552                	mv	a0,s4
   11c70:	218070ef          	jal	ra,18e88 <__ssprint_r>
   11c74:	c119                	beqz	a0,11c7a <_svfprintf_r+0x14b2>
   11c76:	cb3fe06f          	j	10928 <_svfprintf_r+0x160>
   11c7a:	7792                	ld	a5,288(sp)
   11c7c:	8356                	mv	t1,s5
   11c7e:	b29d                	j	115e4 <_svfprintf_r+0xe1c>
   11c80:	e0be                	sd	a5,64(sp)
   11c82:	67aa                	ld	a5,136(sp)
   11c84:	65ea                	ld	a1,152(sp)
   11c86:	fc1a                	sd	t1,56(sp)
   11c88:	40fd0d33          	sub	s10,s10,a5
   11c8c:	863e                	mv	a2,a5
   11c8e:	856a                	mv	a0,s10
   11c90:	f076                	sd	t4,32(sp)
   11c92:	ec36                	sd	a3,24(sp)
   11c94:	156070ef          	jal	ra,18dea <strncpy>
   11c98:	77c6                	ld	a5,112(sp)
   11c9a:	0289d633          	divu	a2,s3,s0
   11c9e:	f402                	sd	zero,40(sp)
   11ca0:	0017c583          	lbu	a1,1(a5)
   11ca4:	66e2                	ld	a3,24(sp)
   11ca6:	7e82                	ld	t4,32(sp)
   11ca8:	00b035b3          	snez	a1,a1
   11cac:	97ae                	add	a5,a5,a1
   11cae:	f8be                	sd	a5,112(sp)
   11cb0:	7362                	ld	t1,56(sp)
   11cb2:	6786                	ld	a5,64(sp)
   11cb4:	4825                	li	a6,9
   11cb6:	0ff00893          	li	a7,255
   11cba:	d5eff06f          	j	11218 <_svfprintf_r+0xa50>
   11cbe:	4e99                	li	t4,6
   11cc0:	bea9                	j	1181a <_svfprintf_r+0x1052>
   11cc2:	7722                	ld	a4,40(sp)
   11cc4:	40d7063b          	subw	a2,a4,a3
   11cc8:	976a                	add	a4,a4,s10
   11cca:	41870ebb          	subw	t4,a4,s8
   11cce:	8732                	mv	a4,a2
   11cd0:	00ced363          	bge	t4,a2,11cd6 <_svfprintf_r+0x150e>
   11cd4:	8776                	mv	a4,t4
   11cd6:	00070c9b          	sext.w	s9,a4
   11cda:	ba71                	j	11676 <_svfprintf_r+0xeae>
   11cdc:	67a2                	ld	a5,8(sp)
   11cde:	8d26                	mv	s10,s1
   11ce0:	00f71023          	sh	a5,0(a4)
   11ce4:	880ff06f          	j	10d64 <_svfprintf_r+0x59c>
   11ce8:	67c2                	ld	a5,16(sp)
   11cea:	86a2                	mv	a3,s0
   11cec:	e83a                	sd	a4,16(sp)
   11cee:	0007a983          	lw	s3,0(a5)
   11cf2:	87ce                	mv	a5,s3
   11cf4:	ebffe06f          	j	10bb2 <_svfprintf_r+0x3ea>
   11cf8:	1982                	slli	s3,s3,0x20
   11cfa:	0209d993          	srli	s3,s3,0x20
   11cfe:	e83a                	sd	a4,16(sp)
   11d00:	86a2                	mv	a3,s0
   11d02:	4785                	li	a5,1
   11d04:	cbbfe06f          	j	109be <_svfprintf_r+0x1f6>
   11d08:	1982                	slli	s3,s3,0x20
   11d0a:	0209d993          	srli	s3,s3,0x20
   11d0e:	e83a                	sd	a4,16(sp)
   11d10:	e5bfe06f          	j	10b6a <_svfprintf_r+0x3a2>
   11d14:	1982                	slli	s3,s3,0x20
   11d16:	0209d993          	srli	s3,s3,0x20
   11d1a:	c7ffe06f          	j	10998 <_svfprintf_r+0x1d0>
   11d1e:	02d00793          	li	a5,45
   11d22:	0cf10fa3          	sb	a5,223(sp)
   11d26:	b5fd                	j	11c14 <_svfprintf_r+0x144c>
   11d28:	0a10                	addi	a2,sp,272
   11d2a:	85da                	mv	a1,s6
   11d2c:	8552                	mv	a0,s4
   11d2e:	15a070ef          	jal	ra,18e88 <__ssprint_r>
   11d32:	c119                	beqz	a0,11d38 <_svfprintf_r+0x1570>
   11d34:	bf5fe06f          	j	10928 <_svfprintf_r+0x160>
   11d38:	55ae                	lw	a1,232(sp)
   11d3a:	7792                	ld	a5,288(sp)
   11d3c:	11812683          	lw	a3,280(sp)
   11d40:	8356                	mv	t1,s5
   11d42:	ce05d2e3          	bgez	a1,11a26 <_svfprintf_r+0x125e>
   11d46:	b519                	j	11b4c <_svfprintf_r+0x1384>
   11d48:	4e99                	li	t4,6
   11d4a:	b00ff06f          	j	1104a <_svfprintf_r+0x882>
   11d4e:	86a2                	mv	a3,s0
   11d50:	c94ff06f          	j	111e4 <_svfprintf_r+0xa1c>
   11d54:	7722                	ld	a4,40(sp)
   11d56:	00ed06b3          	add	a3,s10,a4
   11d5a:	8b86f6e3          	bgeu	a3,s8,11606 <_svfprintf_r+0xe3e>
   11d5e:	8c36                	mv	s8,a3
   11d60:	b05d                	j	11606 <_svfprintf_r+0xe3e>
   11d62:	7706                	ld	a4,96(sp)
   11d64:	57f5                	li	a5,-3
   11d66:	00f74463          	blt	a4,a5,11d6e <_svfprintf_r+0x15a6>
   11d6a:	00eed863          	bge	t4,a4,11d7a <_svfprintf_r+0x15b2>
   11d6e:	3cf9                	addiw	s9,s9,-2
   11d70:	fdfcf793          	andi	a5,s9,-33
   11d74:	f53e                	sd	a5,168(sp)
   11d76:	b64ff06f          	j	110da <_svfprintf_r+0x912>
   11d7a:	77a2                	ld	a5,40(sp)
   11d7c:	7706                	ld	a4,96(sp)
   11d7e:	18f74b63          	blt	a4,a5,11f14 <_svfprintf_r+0x174c>
   11d82:	77ca                	ld	a5,176(sp)
   11d84:	8c3a                	mv	s8,a4
   11d86:	8b85                	andi	a5,a5,1
   11d88:	c781                	beqz	a5,11d90 <_svfprintf_r+0x15c8>
   11d8a:	77e6                	ld	a5,120(sp)
   11d8c:	00e78c3b          	addw	s8,a5,a4
   11d90:	77ca                	ld	a5,176(sp)
   11d92:	4007f793          	andi	a5,a5,1024
   11d96:	c781                	beqz	a5,11d9e <_svfprintf_r+0x15d6>
   11d98:	7786                	ld	a5,96(sp)
   11d9a:	4cf04763          	bgtz	a5,12268 <_svfprintf_r+0x1aa0>
   11d9e:	fffc4993          	not	s3,s8
   11da2:	43f9d993          	srai	s3,s3,0x3f
   11da6:	013c79b3          	and	s3,s8,s3
   11daa:	2981                	sext.w	s3,s3
   11dac:	06700c93          	li	s9,103
   11db0:	ec82                	sd	zero,88(sp)
   11db2:	f482                	sd	zero,104(sp)
   11db4:	c0cff06f          	j	111c0 <_svfprintf_r+0x9f8>
   11db8:	11bc                	addi	a5,sp,232
   11dba:	8776                	mv	a4,t4
   11dbc:	468d                	li	a3,3
   11dbe:	85fe                	mv	a1,t6
   11dc0:	0f810893          	addi	a7,sp,248
   11dc4:	0ec10813          	addi	a6,sp,236
   11dc8:	8662                	mv	a2,s8
   11dca:	8552                	mv	a0,s4
   11dcc:	fc1a                	sd	t1,56(sp)
   11dce:	f476                	sd	t4,40(sp)
   11dd0:	ec7e                	sd	t6,24(sp)
   11dd2:	258040ef          	jal	ra,1602a <_ldtoa_r>
   11dd6:	00054683          	lbu	a3,0(a0)
   11dda:	03000793          	li	a5,48
   11dde:	8d2a                	mv	s10,a0
   11de0:	6fe2                	ld	t6,24(sp)
   11de2:	7ea2                	ld	t4,40(sp)
   11de4:	7362                	ld	t1,56(sp)
   11de6:	0af69b63          	bne	a3,a5,11e9c <_svfprintf_r+0x16d4>
   11dea:	857e                	mv	a0,t6
   11dec:	4601                	li	a2,0
   11dee:	4681                	li	a3,0
   11df0:	85e2                	mv	a1,s8
   11df2:	fc1a                	sd	t1,56(sp)
   11df4:	f476                	sd	t4,40(sp)
   11df6:	ec7e                	sd	t6,24(sp)
   11df8:	302090ef          	jal	ra,1b0fa <__eqtf2>
   11dfc:	6fe2                	ld	t6,24(sp)
   11dfe:	7ea2                	ld	t4,40(sp)
   11e00:	7362                	ld	t1,56(sp)
   11e02:	cd49                	beqz	a0,11e9c <_svfprintf_r+0x16d4>
   11e04:	4685                	li	a3,1
   11e06:	41d687bb          	subw	a5,a3,t4
   11e0a:	d5be                	sw	a5,232(sp)
   11e0c:	01d789b3          	add	s3,a5,t4
   11e10:	99ea                	add	s3,s3,s10
   11e12:	4601                	li	a2,0
   11e14:	4681                	li	a3,0
   11e16:	857e                	mv	a0,t6
   11e18:	85e2                	mv	a1,s8
   11e1a:	f41a                	sd	t1,40(sp)
   11e1c:	ec76                	sd	t4,24(sp)
   11e1e:	2dc090ef          	jal	ra,1b0fa <__eqtf2>
   11e22:	87ce                	mv	a5,s3
   11e24:	6ee2                	ld	t4,24(sp)
   11e26:	7322                	ld	t1,40(sp)
   11e28:	a8050a63          	beqz	a0,110bc <_svfprintf_r+0x8f4>
   11e2c:	77ee                	ld	a5,248(sp)
   11e2e:	03000613          	li	a2,48
   11e32:	a937f563          	bgeu	a5,s3,110bc <_svfprintf_r+0x8f4>
   11e36:	00178693          	addi	a3,a5,1
   11e3a:	fdb6                	sd	a3,248(sp)
   11e3c:	00c78023          	sb	a2,0(a5)
   11e40:	77ee                	ld	a5,248(sp)
   11e42:	ff37eae3          	bltu	a5,s3,11e36 <_svfprintf_r+0x166e>
   11e46:	a76ff06f          	j	110bc <_svfprintf_r+0x8f4>
   11e4a:	0df14783          	lbu	a5,223(sp)
   11e4e:	4e81                	li	t4,0
   11e50:	c399                	beqz	a5,11e56 <_svfprintf_r+0x168e>
   11e52:	bb1fe06f          	j	10a02 <_svfprintf_r+0x23a>
   11e56:	e2dfe06f          	j	10c82 <_svfprintf_r+0x4ba>
   11e5a:	0a10                	addi	a2,sp,272
   11e5c:	85da                	mv	a1,s6
   11e5e:	8552                	mv	a0,s4
   11e60:	028070ef          	jal	ra,18e88 <__ssprint_r>
   11e64:	c119                	beqz	a0,11e6a <_svfprintf_r+0x16a2>
   11e66:	ac3fe06f          	j	10928 <_svfprintf_r+0x160>
   11e6a:	77c6                	ld	a5,112(sp)
   11e6c:	8356                	mv	t1,s5
   11e6e:	0007c603          	lbu	a2,0(a5)
   11e72:	7792                	ld	a5,288(sp)
   11e74:	9c32                	add	s8,s8,a2
   11e76:	bc51                	j	1190a <_svfprintf_r+0x1142>
   11e78:	02d00793          	li	a5,45
   11e7c:	0cf10fa3          	sb	a5,223(sp)
   11e80:	b181                	j	11ac0 <_svfprintf_r+0x12f8>
   11e82:	0a10                	addi	a2,sp,272
   11e84:	85da                	mv	a1,s6
   11e86:	8552                	mv	a0,s4
   11e88:	000070ef          	jal	ra,18e88 <__ssprint_r>
   11e8c:	c119                	beqz	a0,11e92 <_svfprintf_r+0x16ca>
   11e8e:	a9bfe06f          	j	10928 <_svfprintf_r+0x160>
   11e92:	56ae                	lw	a3,232(sp)
   11e94:	7792                	ld	a5,288(sp)
   11e96:	8356                	mv	t1,s5
   11e98:	fa2ff06f          	j	1163a <_svfprintf_r+0xe72>
   11e9c:	57ae                	lw	a5,232(sp)
   11e9e:	01d789b3          	add	s3,a5,t4
   11ea2:	b7bd                	j	11e10 <_svfprintf_r+0x1648>
   11ea4:	0df14783          	lbu	a5,223(sp)
   11ea8:	e836                	sd	a3,16(sp)
   11eaa:	ec82                	sd	zero,88(sp)
   11eac:	f482                	sd	zero,104(sp)
   11eae:	f082                	sd	zero,96(sp)
   11eb0:	89f6                	mv	s3,t4
   11eb2:	8c76                	mv	s8,t4
   11eb4:	4e81                	li	t4,0
   11eb6:	c399                	beqz	a5,11ebc <_svfprintf_r+0x16f4>
   11eb8:	b4bfe06f          	j	10a02 <_svfprintf_r+0x23a>
   11ebc:	dc7fe06f          	j	10c82 <_svfprintf_r+0x4ba>
   11ec0:	0a10                	addi	a2,sp,272
   11ec2:	85da                	mv	a1,s6
   11ec4:	8552                	mv	a0,s4
   11ec6:	7c3060ef          	jal	ra,18e88 <__ssprint_r>
   11eca:	c119                	beqz	a0,11ed0 <_svfprintf_r+0x1708>
   11ecc:	a5dfe06f          	j	10928 <_svfprintf_r+0x160>
   11ed0:	562e                	lw	a2,232(sp)
   11ed2:	7722                	ld	a4,40(sp)
   11ed4:	7792                	ld	a5,288(sp)
   11ed6:	8356                	mv	t1,s5
   11ed8:	40c7063b          	subw	a2,a4,a2
   11edc:	f9aff06f          	j	11676 <_svfprintf_r+0xeae>
   11ee0:	77ca                	ld	a5,176(sp)
   11ee2:	7706                	ld	a4,96(sp)
   11ee4:	8b85                	andi	a5,a5,1
   11ee6:	00fee7b3          	or	a5,t4,a5
   11eea:	2781                	sext.w	a5,a5
   11eec:	40e05463          	blez	a4,122f4 <_svfprintf_r+0x1b2c>
   11ef0:	3e079263          	bnez	a5,122d4 <_svfprintf_r+0x1b0c>
   11ef4:	7c06                	ld	s8,96(sp)
   11ef6:	06600c93          	li	s9,102
   11efa:	77ca                	ld	a5,176(sp)
   11efc:	4007f793          	andi	a5,a5,1024
   11f00:	36079663          	bnez	a5,1226c <_svfprintf_r+0x1aa4>
   11f04:	fffc4993          	not	s3,s8
   11f08:	43f9d993          	srai	s3,s3,0x3f
   11f0c:	013c79b3          	and	s3,s8,s3
   11f10:	2981                	sext.w	s3,s3
   11f12:	bd79                	j	11db0 <_svfprintf_r+0x15e8>
   11f14:	7722                	ld	a4,40(sp)
   11f16:	77e6                	ld	a5,120(sp)
   11f18:	06700c93          	li	s9,103
   11f1c:	00e78c3b          	addw	s8,a5,a4
   11f20:	7706                	ld	a4,96(sp)
   11f22:	fce04ce3          	bgtz	a4,11efa <_svfprintf_r+0x1732>
   11f26:	40ec07bb          	subw	a5,s8,a4
   11f2a:	2785                	addiw	a5,a5,1
   11f2c:	00078c1b          	sext.w	s8,a5
   11f30:	fffc4993          	not	s3,s8
   11f34:	43f9d993          	srai	s3,s3,0x3f
   11f38:	0137f7b3          	and	a5,a5,s3
   11f3c:	0007899b          	sext.w	s3,a5
   11f40:	bd85                	j	11db0 <_svfprintf_r+0x15e8>
   11f42:	03000793          	li	a5,48
   11f46:	0ef10023          	sb	a5,224(sp)
   11f4a:	05800713          	li	a4,88
   11f4e:	00246793          	ori	a5,s0,2
   11f52:	2781                	sext.w	a5,a5
   11f54:	0ee100a3          	sb	a4,225(sp)
   11f58:	06300693          	li	a3,99
   11f5c:	f93e                	sd	a5,176(sp)
   11f5e:	f002                	sd	zero,32(sp)
   11f60:	12810d13          	addi	s10,sp,296
   11f64:	1fd6c263          	blt	a3,t4,12148 <_svfprintf_r+0x1980>
   11f68:	6c32                	ld	s8,264(sp)
   11f6a:	fdfcf793          	andi	a5,s9,-33
   11f6e:	10246413          	ori	s0,s0,258
   11f72:	f53e                	sd	a5,168(sp)
   11f74:	e582                	sd	zero,200(sp)
   11f76:	2401                	sext.w	s0,s0
   11f78:	6f92                	ld	t6,256(sp)
   11f7a:	160c4863          	bltz	s8,120ea <_svfprintf_r+0x1922>
   11f7e:	06100793          	li	a5,97
   11f82:	28fc8d63          	beq	s9,a5,1221c <_svfprintf_r+0x1a54>
   11f86:	04100793          	li	a5,65
   11f8a:	8cfc9d63          	bne	s9,a5,11064 <_svfprintf_r+0x89c>
   11f8e:	857e                	mv	a0,t6
   11f90:	85e2                	mv	a1,s8
   11f92:	e09a                	sd	t1,64(sp)
   11f94:	fc76                	sd	t4,56(sp)
   11f96:	32e0a0ef          	jal	ra,1c2c4 <__trunctfdf2>
   11f9a:	11a8                	addi	a0,sp,232
   11f9c:	2d7060ef          	jal	ra,18a72 <frexp>
   11fa0:	2600a0ef          	jal	ra,1c200 <__extenddftf2>
   11fa4:	0000b797          	auipc	a5,0xb
   11fa8:	8dc78793          	addi	a5,a5,-1828 # 1c880 <zeroes.4526+0x38>
   11fac:	6794                	ld	a3,8(a5)
   11fae:	4601                	li	a2,0
   11fb0:	342090ef          	jal	ra,1b2f2 <__multf3>
   11fb4:	4601                	li	a2,0
   11fb6:	4681                	li	a3,0
   11fb8:	f42a                	sd	a0,40(sp)
   11fba:	ec2e                	sd	a1,24(sp)
   11fbc:	13e090ef          	jal	ra,1b0fa <__eqtf2>
   11fc0:	62e2                	ld	t0,24(sp)
   11fc2:	7822                	ld	a6,40(sp)
   11fc4:	7ee2                	ld	t4,56(sp)
   11fc6:	6306                	ld	t1,64(sp)
   11fc8:	e119                	bnez	a0,11fce <_svfprintf_r+0x1806>
   11fca:	4785                	li	a5,1
   11fcc:	d5be                	sw	a5,232(sp)
   11fce:	0000b797          	auipc	a5,0xb
   11fd2:	8fa78793          	addi	a5,a5,-1798 # 1c8c8 <zeroes.4526+0x80>
   11fd6:	f4be                	sd	a5,104(sp)
   11fd8:	000e879b          	sext.w	a5,t4
   11fdc:	02079c13          	slli	s8,a5,0x20
   11fe0:	00fd07bb          	addw	a5,s10,a5
   11fe4:	df3e                	sw	a5,188(sp)
   11fe6:	0000b797          	auipc	a5,0xb
   11fea:	87a78793          	addi	a5,a5,-1926 # 1c860 <zeroes.4526+0x18>
   11fee:	679c                	ld	a5,8(a5)
   11ff0:	020c5c13          	srli	s8,s8,0x20
   11ff4:	0c05                	addi	s8,s8,1
   11ff6:	9c6a                	add	s8,s8,s10
   11ff8:	ec6a                	sd	s10,24(sp)
   11ffa:	e1be                	sd	a5,192(sp)
   11ffc:	a00d                	j	1201e <_svfprintf_r+0x1856>
   11ffe:	4601                	li	a2,0
   12000:	4681                	li	a3,0
   12002:	f0ae                	sd	a1,96(sp)
   12004:	ecaa                	sd	a0,88(sp)
   12006:	0f4090ef          	jal	ra,1b0fa <__eqtf2>
   1200a:	6e86                	ld	t4,64(sp)
   1200c:	6326                	ld	t1,72(sp)
   1200e:	6fe6                	ld	t6,88(sp)
   12010:	7886                	ld	a7,96(sp)
   12012:	77a2                	ld	a5,40(sp)
   12014:	72e2                	ld	t0,56(sp)
   12016:	6846                	ld	a6,80(sp)
   12018:	1c050363          	beqz	a0,121de <_svfprintf_r+0x1a16>
   1201c:	ec3e                	sd	a5,24(sp)
   1201e:	668e                	ld	a3,192(sp)
   12020:	4601                	li	a2,0
   12022:	8542                	mv	a0,a6
   12024:	8596                	mv	a1,t0
   12026:	e49a                	sd	t1,72(sp)
   12028:	e0f6                	sd	t4,64(sp)
   1202a:	2c8090ef          	jal	ra,1b2f2 <__multf3>
   1202e:	f42e                	sd	a1,40(sp)
   12030:	fc2a                	sd	a0,56(sp)
   12032:	0e00a0ef          	jal	ra,1c112 <__fixtfsi>
   12036:	0005099b          	sext.w	s3,a0
   1203a:	854e                	mv	a0,s3
   1203c:	1660a0ef          	jal	ra,1c1a2 <__floatsitf>
   12040:	77a2                	ld	a5,40(sp)
   12042:	7862                	ld	a6,56(sp)
   12044:	86ae                	mv	a3,a1
   12046:	862a                	mv	a2,a0
   12048:	85be                	mv	a1,a5
   1204a:	8542                	mv	a0,a6
   1204c:	0ad090ef          	jal	ra,1b8f8 <__subtf3>
   12050:	77a6                	ld	a5,104(sp)
   12052:	577a                	lw	a4,188(sp)
   12054:	e8aa                	sd	a0,80(sp)
   12056:	97ce                	add	a5,a5,s3
   12058:	0007c683          	lbu	a3,0(a5)
   1205c:	67e2                	ld	a5,24(sp)
   1205e:	fc2e                	sd	a1,56(sp)
   12060:	8faa                	mv	t6,a0
   12062:	00d78023          	sb	a3,0(a5)
   12066:	0785                	addi	a5,a5,1
   12068:	9f1d                	subw	a4,a4,a5
   1206a:	f13a                	sd	a4,160(sp)
   1206c:	f43e                	sd	a5,40(sp)
   1206e:	88ae                	mv	a7,a1
   12070:	6e86                	ld	t4,64(sp)
   12072:	6326                	ld	t1,72(sp)
   12074:	f8fc15e3          	bne	s8,a5,11ffe <_svfprintf_r+0x1836>
   12078:	57fd                	li	a5,-1
   1207a:	f13e                	sd	a5,160(sp)
   1207c:	0000a797          	auipc	a5,0xa
   12080:	7f478793          	addi	a5,a5,2036 # 1c870 <zeroes.4526+0x28>
   12084:	679c                	ld	a5,8(a5)
   12086:	4601                	li	a2,0
   12088:	857e                	mv	a0,t6
   1208a:	86be                	mv	a3,a5
   1208c:	85c6                	mv	a1,a7
   1208e:	e09a                	sd	t1,64(sp)
   12090:	fc76                	sd	t4,56(sp)
   12092:	f43e                	sd	a5,40(sp)
   12094:	e8fe                	sd	t6,80(sp)
   12096:	e4c6                	sd	a7,72(sp)
   12098:	0fe090ef          	jal	ra,1b196 <__getf2>
   1209c:	7ee2                	ld	t4,56(sp)
   1209e:	6306                	ld	t1,64(sp)
   120a0:	04a04d63          	bgtz	a0,120fa <_svfprintf_r+0x1932>
   120a4:	6fc6                	ld	t6,80(sp)
   120a6:	68a6                	ld	a7,72(sp)
   120a8:	76a2                	ld	a3,40(sp)
   120aa:	4601                	li	a2,0
   120ac:	857e                	mv	a0,t6
   120ae:	85c6                	mv	a1,a7
   120b0:	04a090ef          	jal	ra,1b0fa <__eqtf2>
   120b4:	7ee2                	ld	t4,56(sp)
   120b6:	6306                	ld	t1,64(sp)
   120b8:	e509                	bnez	a0,120c2 <_svfprintf_r+0x18fa>
   120ba:	0019f993          	andi	s3,s3,1
   120be:	02099e63          	bnez	s3,120fa <_svfprintf_r+0x1932>
   120c2:	770a                	ld	a4,160(sp)
   120c4:	03000693          	li	a3,48
   120c8:	00170793          	addi	a5,a4,1
   120cc:	97e2                	add	a5,a5,s8
   120ce:	00074763          	bltz	a4,120dc <_svfprintf_r+0x1914>
   120d2:	0c05                	addi	s8,s8,1
   120d4:	fedc0fa3          	sb	a3,-1(s8)
   120d8:	ff879de3          	bne	a5,s8,120d2 <_svfprintf_r+0x190a>
   120dc:	41ac07bb          	subw	a5,s8,s10
   120e0:	f43e                	sd	a5,40(sp)
   120e2:	fe1fe06f          	j	110c2 <_svfprintf_r+0x8fa>
   120e6:	f002                	sd	zero,32(sp)
   120e8:	843e                	mv	s0,a5
   120ea:	57fd                	li	a5,-1
   120ec:	17fe                	slli	a5,a5,0x3f
   120ee:	00fc4c33          	xor	s8,s8,a5
   120f2:	02d00793          	li	a5,45
   120f6:	e5be                	sd	a5,200(sp)
   120f8:	b559                	j	11f7e <_svfprintf_r+0x17b6>
   120fa:	67e2                	ld	a5,24(sp)
   120fc:	fdbe                	sd	a5,248(sp)
   120fe:	77a6                	ld	a5,104(sp)
   12100:	fffc4683          	lbu	a3,-1(s8)
   12104:	00f7c603          	lbu	a2,15(a5)
   12108:	87e2                	mv	a5,s8
   1210a:	00d61e63          	bne	a2,a3,12126 <_svfprintf_r+0x195e>
   1210e:	03000593          	li	a1,48
   12112:	feb78fa3          	sb	a1,-1(a5)
   12116:	77ee                	ld	a5,248(sp)
   12118:	fff78693          	addi	a3,a5,-1
   1211c:	fdb6                	sd	a3,248(sp)
   1211e:	fff7c683          	lbu	a3,-1(a5)
   12122:	fed608e3          	beq	a2,a3,12112 <_svfprintf_r+0x194a>
   12126:	0016861b          	addiw	a2,a3,1
   1212a:	03900593          	li	a1,57
   1212e:	0ff67613          	andi	a2,a2,255
   12132:	00b68563          	beq	a3,a1,1213c <_svfprintf_r+0x1974>
   12136:	fec78fa3          	sb	a2,-1(a5)
   1213a:	b74d                	j	120dc <_svfprintf_r+0x1914>
   1213c:	7726                	ld	a4,104(sp)
   1213e:	00a74603          	lbu	a2,10(a4)
   12142:	fec78fa3          	sb	a2,-1(a5)
   12146:	bf59                	j	120dc <_svfprintf_r+0x1914>
   12148:	001e859b          	addiw	a1,t4,1
   1214c:	8552                	mv	a0,s4
   1214e:	f01a                	sd	t1,32(sp)
   12150:	ec76                	sd	t4,24(sp)
   12152:	791040ef          	jal	ra,170e2 <_malloc_r>
   12156:	8d2a                	mv	s10,a0
   12158:	6ee2                	ld	t4,24(sp)
   1215a:	7302                	ld	t1,32(sp)
   1215c:	20050163          	beqz	a0,1235e <_svfprintf_r+0x1b96>
   12160:	f02a                	sd	a0,32(sp)
   12162:	b519                	j	11f68 <_svfprintf_r+0x17a0>
   12164:	2685                	addiw	a3,a3,1
   12166:	97e2                	add	a5,a5,s8
   12168:	01233023          	sd	s2,0(t1)
   1216c:	01833423          	sd	s8,8(t1)
   12170:	f23e                	sd	a5,288(sp)
   12172:	10d12c23          	sw	a3,280(sp)
   12176:	461d                	li	a2,7
   12178:	8ad656e3          	bge	a2,a3,11a24 <_svfprintf_r+0x125c>
   1217c:	0a10                	addi	a2,sp,272
   1217e:	85da                	mv	a1,s6
   12180:	8552                	mv	a0,s4
   12182:	507060ef          	jal	ra,18e88 <__ssprint_r>
   12186:	c119                	beqz	a0,1218c <_svfprintf_r+0x19c4>
   12188:	fa0fe06f          	j	10928 <_svfprintf_r+0x160>
   1218c:	7792                	ld	a5,288(sp)
   1218e:	11812683          	lw	a3,280(sp)
   12192:	8356                	mv	t1,s5
   12194:	b849                	j	11a26 <_svfprintf_r+0x125e>
   12196:	001e899b          	addiw	s3,t4,1
   1219a:	874e                	mv	a4,s3
   1219c:	85fe                	mv	a1,t6
   1219e:	0f810893          	addi	a7,sp,248
   121a2:	0ec10813          	addi	a6,sp,236
   121a6:	11bc                	addi	a5,sp,232
   121a8:	4689                	li	a3,2
   121aa:	8662                	mv	a2,s8
   121ac:	8552                	mv	a0,s4
   121ae:	f476                	sd	t4,40(sp)
   121b0:	ec7e                	sd	t6,24(sp)
   121b2:	679030ef          	jal	ra,1602a <_ldtoa_r>
   121b6:	8d2a                	mv	s10,a0
   121b8:	6fe2                	ld	t6,24(sp)
   121ba:	7ea2                	ld	t4,40(sp)
   121bc:	7362                	ld	t1,56(sp)
   121be:	99ea                	add	s3,s3,s10
   121c0:	b989                	j	11e12 <_svfprintf_r+0x164a>
   121c2:	03000793          	li	a5,48
   121c6:	0ef10023          	sb	a5,224(sp)
   121ca:	07800713          	li	a4,120
   121ce:	b341                	j	11f4e <_svfprintf_r+0x1786>
   121d0:	000e8463          	beqz	t4,121d8 <_svfprintf_r+0x1a10>
   121d4:	e77fe06f          	j	1104a <_svfprintf_r+0x882>
   121d8:	4e85                	li	t4,1
   121da:	e71fe06f          	j	1104a <_svfprintf_r+0x882>
   121de:	8c3e                	mv	s8,a5
   121e0:	bd71                	j	1207c <_svfprintf_r+0x18b4>
   121e2:	c31c                	sw	a5,0(a4)
   121e4:	8d26                	mv	s10,s1
   121e6:	b7ffe06f          	j	10d64 <_svfprintf_r+0x59c>
   121ea:	57fd                	li	a5,-1
   121ec:	e43e                	sd	a5,8(sp)
   121ee:	f54fe06f          	j	10942 <_svfprintf_r+0x17a>
   121f2:	0f210693          	addi	a3,sp,242
   121f6:	e619                	bnez	a2,12204 <_svfprintf_r+0x1a3c>
   121f8:	03000693          	li	a3,48
   121fc:	0ed10923          	sb	a3,242(sp)
   12200:	0f310693          	addi	a3,sp,243
   12204:	0c18                	addi	a4,sp,528
   12206:	0307879b          	addiw	a5,a5,48
   1220a:	40e68633          	sub	a2,a3,a4
   1220e:	00f68023          	sb	a5,0(a3)
   12212:	1216079b          	addiw	a5,a2,289
   12216:	e93e                	sd	a5,144(sp)
   12218:	f6ffe06f          	j	11186 <_svfprintf_r+0x9be>
   1221c:	857e                	mv	a0,t6
   1221e:	85e2                	mv	a1,s8
   12220:	e09a                	sd	t1,64(sp)
   12222:	fc76                	sd	t4,56(sp)
   12224:	0a00a0ef          	jal	ra,1c2c4 <__trunctfdf2>
   12228:	11a8                	addi	a0,sp,232
   1222a:	049060ef          	jal	ra,18a72 <frexp>
   1222e:	7d3090ef          	jal	ra,1c200 <__extenddftf2>
   12232:	0000a797          	auipc	a5,0xa
   12236:	64e78793          	addi	a5,a5,1614 # 1c880 <zeroes.4526+0x38>
   1223a:	6794                	ld	a3,8(a5)
   1223c:	4601                	li	a2,0
   1223e:	0b4090ef          	jal	ra,1b2f2 <__multf3>
   12242:	4601                	li	a2,0
   12244:	4681                	li	a3,0
   12246:	f42a                	sd	a0,40(sp)
   12248:	ec2e                	sd	a1,24(sp)
   1224a:	6b1080ef          	jal	ra,1b0fa <__eqtf2>
   1224e:	62e2                	ld	t0,24(sp)
   12250:	7822                	ld	a6,40(sp)
   12252:	7ee2                	ld	t4,56(sp)
   12254:	6306                	ld	t1,64(sp)
   12256:	e119                	bnez	a0,1225c <_svfprintf_r+0x1a94>
   12258:	4785                	li	a5,1
   1225a:	d5be                	sw	a5,232(sp)
   1225c:	0000a797          	auipc	a5,0xa
   12260:	65478793          	addi	a5,a5,1620 # 1c8b0 <zeroes.4526+0x68>
   12264:	f4be                	sd	a5,104(sp)
   12266:	bb8d                	j	11fd8 <_svfprintf_r+0x1810>
   12268:	06700c93          	li	s9,103
   1226c:	77c6                	ld	a5,112(sp)
   1226e:	ec82                	sd	zero,88(sp)
   12270:	f482                	sd	zero,104(sp)
   12272:	0007c783          	lbu	a5,0(a5)
   12276:	0ff00593          	li	a1,255
   1227a:	02b78963          	beq	a5,a1,122ac <_svfprintf_r+0x1ae4>
   1227e:	7706                	ld	a4,96(sp)
   12280:	0007869b          	sext.w	a3,a5
   12284:	02e6d463          	bge	a3,a4,122ac <_svfprintf_r+0x1ae4>
   12288:	7546                	ld	a0,112(sp)
   1228a:	9f15                	subw	a4,a4,a3
   1228c:	f0ba                	sd	a4,96(sp)
   1228e:	00154603          	lbu	a2,1(a0)
   12292:	ca09                	beqz	a2,122a4 <_svfprintf_r+0x1adc>
   12294:	77a6                	ld	a5,104(sp)
   12296:	2785                	addiw	a5,a5,1
   12298:	f4be                	sd	a5,104(sp)
   1229a:	00150793          	addi	a5,a0,1
   1229e:	f8be                	sd	a5,112(sp)
   122a0:	87b2                	mv	a5,a2
   122a2:	bfe1                	j	1227a <_svfprintf_r+0x1ab2>
   122a4:	6766                	ld	a4,88(sp)
   122a6:	2705                	addiw	a4,a4,1
   122a8:	ecba                	sd	a4,88(sp)
   122aa:	bfc1                	j	1227a <_svfprintf_r+0x1ab2>
   122ac:	6766                	ld	a4,88(sp)
   122ae:	77a6                	ld	a5,104(sp)
   122b0:	9fb9                	addw	a5,a5,a4
   122b2:	672a                	ld	a4,136(sp)
   122b4:	02e787bb          	mulw	a5,a5,a4
   122b8:	018787bb          	addw	a5,a5,s8
   122bc:	00078c1b          	sext.w	s8,a5
   122c0:	fffc4993          	not	s3,s8
   122c4:	43f9d993          	srai	s3,s3,0x3f
   122c8:	0137f7b3          	and	a5,a5,s3
   122cc:	0007899b          	sext.w	s3,a5
   122d0:	ef1fe06f          	j	111c0 <_svfprintf_r+0x9f8>
   122d4:	77e6                	ld	a5,120(sp)
   122d6:	06600c93          	li	s9,102
   122da:	00e78c3b          	addw	s8,a5,a4
   122de:	01dc0c3b          	addw	s8,s8,t4
   122e2:	b921                	j	11efa <_svfprintf_r+0x1732>
   122e4:	774a                	ld	a4,176(sp)
   122e6:	00177693          	andi	a3,a4,1
   122ea:	e299                	bnez	a3,122f0 <_svfprintf_r+0x1b28>
   122ec:	eb5fe06f          	j	111a0 <_svfprintf_r+0x9d8>
   122f0:	eabfe06f          	j	1119a <_svfprintf_r+0x9d2>
   122f4:	e791                	bnez	a5,12300 <_svfprintf_r+0x1b38>
   122f6:	4985                	li	s3,1
   122f8:	06600c93          	li	s9,102
   122fc:	4c05                	li	s8,1
   122fe:	bc4d                	j	11db0 <_svfprintf_r+0x15e8>
   12300:	77e6                	ld	a5,120(sp)
   12302:	06600c93          	li	s9,102
   12306:	2785                	addiw	a5,a5,1
   12308:	01d78ebb          	addw	t4,a5,t4
   1230c:	000e8c1b          	sext.w	s8,t4
   12310:	fffc4993          	not	s3,s8
   12314:	43f9d993          	srai	s3,s3,0x3f
   12318:	013efeb3          	and	t4,t4,s3
   1231c:	000e899b          	sext.w	s3,t4
   12320:	bc41                	j	11db0 <_svfprintf_r+0x15e8>
   12322:	871a                	mv	a4,t1
   12324:	877ff06f          	j	11b9a <_svfprintf_r+0x13d2>
   12328:	6742                	ld	a4,16(sp)
   1232a:	00072e83          	lw	t4,0(a4)
   1232e:	0721                	addi	a4,a4,8
   12330:	000ed363          	bgez	t4,12336 <_svfprintf_r+0x1b6e>
   12334:	5efd                	li	t4,-1
   12336:	0014cf03          	lbu	t5,1(s1)
   1233a:	e83a                	sd	a4,16(sp)
   1233c:	84be                	mv	s1,a5
   1233e:	d8efe06f          	j	108cc <_svfprintf_r+0x104>
   12342:	4789                	li	a5,2
   12344:	e93e                	sd	a5,144(sp)
   12346:	e41fe06f          	j	11186 <_svfprintf_r+0x9be>
   1234a:	89f6                	mv	s3,t4
   1234c:	99ea                	add	s3,s3,s10
   1234e:	b4d1                	j	11e12 <_svfprintf_r+0x164a>
   12350:	47b1                	li	a5,12
   12352:	00fa2023          	sw	a5,0(s4)
   12356:	57fd                	li	a5,-1
   12358:	e43e                	sd	a5,8(sp)
   1235a:	de8fe06f          	j	10942 <_svfprintf_r+0x17a>
   1235e:	010b5783          	lhu	a5,16(s6)
   12362:	0407e713          	ori	a4,a5,64
   12366:	87ba                	mv	a5,a4
   12368:	00eb1823          	sh	a4,16(s6)
   1236c:	dccfe06f          	j	10938 <_svfprintf_r+0x170>

0000000000012370 <time>:
   12370:	1101                	addi	sp,sp,-32
   12372:	75818793          	addi	a5,gp,1880 # 1f520 <_impure_ptr>
   12376:	e822                	sd	s0,16(sp)
   12378:	842a                	mv	s0,a0
   1237a:	6388                	ld	a0,0(a5)
   1237c:	4601                	li	a2,0
   1237e:	858a                	mv	a1,sp
   12380:	ec06                	sd	ra,24(sp)
   12382:	2df020ef          	jal	ra,14e60 <_gettimeofday_r>
   12386:	57fd                	li	a5,-1
   12388:	00054363          	bltz	a0,1238e <time+0x1e>
   1238c:	6782                	ld	a5,0(sp)
   1238e:	c011                	beqz	s0,12392 <time+0x22>
   12390:	e01c                	sd	a5,0(s0)
   12392:	60e2                	ld	ra,24(sp)
   12394:	6442                	ld	s0,16(sp)
   12396:	853e                	mv	a0,a5
   12398:	6105                	addi	sp,sp,32
   1239a:	8082                	ret

000000000001239c <_vfprintf_r>:
   1239c:	d8010113          	addi	sp,sp,-640
   123a0:	26113c23          	sd	ra,632(sp)
   123a4:	25413823          	sd	s4,592(sp)
   123a8:	25513423          	sd	s5,584(sp)
   123ac:	23a13023          	sd	s10,544(sp)
   123b0:	8a2e                	mv	s4,a1
   123b2:	8d32                	mv	s10,a2
   123b4:	e836                	sd	a3,16(sp)
   123b6:	26813823          	sd	s0,624(sp)
   123ba:	26913423          	sd	s1,616(sp)
   123be:	27213023          	sd	s2,608(sp)
   123c2:	25313c23          	sd	s3,600(sp)
   123c6:	25613023          	sd	s6,576(sp)
   123ca:	23713c23          	sd	s7,568(sp)
   123ce:	23813823          	sd	s8,560(sp)
   123d2:	23913423          	sd	s9,552(sp)
   123d6:	21b13c23          	sd	s11,536(sp)
   123da:	8aaa                	mv	s5,a0
   123dc:	353040ef          	jal	ra,16f2e <_localeconv_r>
   123e0:	611c                	ld	a5,0(a0)
   123e2:	853e                	mv	a0,a5
   123e4:	e13e                	sd	a5,128(sp)
   123e6:	b4afe0ef          	jal	ra,10730 <strlen>
   123ea:	fcaa                	sd	a0,120(sp)
   123ec:	e202                	sd	zero,256(sp)
   123ee:	e602                	sd	zero,264(sp)
   123f0:	000a8663          	beqz	s5,123fc <_vfprintf_r+0x60>
   123f4:	050aa783          	lw	a5,80(s5)
   123f8:	1c0789e3          	beqz	a5,12dca <_vfprintf_r+0xa2e>
   123fc:	010a1683          	lh	a3,16(s4)
   12400:	03069793          	slli	a5,a3,0x30
   12404:	93c1                	srli	a5,a5,0x30
   12406:	03279713          	slli	a4,a5,0x32
   1240a:	00074f63          	bltz	a4,12428 <_vfprintf_r+0x8c>
   1240e:	0aca2603          	lw	a2,172(s4)
   12412:	6789                	lui	a5,0x2
   12414:	8fd5                	or	a5,a5,a3
   12416:	76f9                	lui	a3,0xffffe
   12418:	16fd                	addi	a3,a3,-1
   1241a:	8ef1                	and	a3,a3,a2
   1241c:	00fa1823          	sh	a5,16(s4)
   12420:	17c2                	slli	a5,a5,0x30
   12422:	0ada2623          	sw	a3,172(s4)
   12426:	93c1                	srli	a5,a5,0x30
   12428:	0087f693          	andi	a3,a5,8
   1242c:	c2fd                	beqz	a3,12512 <_vfprintf_r+0x176>
   1242e:	018a3683          	ld	a3,24(s4)
   12432:	c2e5                	beqz	a3,12512 <_vfprintf_r+0x176>
   12434:	8be9                	andi	a5,a5,26
   12436:	46a9                	li	a3,10
   12438:	0ed78a63          	beq	a5,a3,1252c <_vfprintf_r+0x190>
   1243c:	000d4783          	lbu	a5,0(s10)
   12440:	19010b13          	addi	s6,sp,400
   12444:	ea5a                	sd	s6,272(sp)
   12446:	f202                	sd	zero,288(sp)
   12448:	10012c23          	sw	zero,280(sp)
   1244c:	f402                	sd	zero,40(sp)
   1244e:	f802                	sd	zero,48(sp)
   12450:	e902                	sd	zero,144(sp)
   12452:	f882                	sd	zero,112(sp)
   12454:	e502                	sd	zero,136(sp)
   12456:	ed02                	sd	zero,152(sp)
   12458:	e402                	sd	zero,8(sp)
   1245a:	835a                	mv	t1,s6
   1245c:	4dc1                	li	s11,16
   1245e:	0000a917          	auipc	s2,0xa
   12462:	61290913          	addi	s2,s2,1554 # 1ca70 <zeroes.4541>
   12466:	74078d63          	beqz	a5,12bc0 <_vfprintf_r+0x824>
   1246a:	02500693          	li	a3,37
   1246e:	00d79463          	bne	a5,a3,12476 <_vfprintf_r+0xda>
   12472:	09a0106f          	j	1350c <_vfprintf_r+0x1170>
   12476:	846a                	mv	s0,s10
   12478:	a021                	j	12480 <_vfprintf_r+0xe4>
   1247a:	0cd78563          	beq	a5,a3,12544 <_vfprintf_r+0x1a8>
   1247e:	844e                	mv	s0,s3
   12480:	00144783          	lbu	a5,1(s0)
   12484:	00140993          	addi	s3,s0,1
   12488:	fbed                	bnez	a5,1247a <_vfprintf_r+0xde>
   1248a:	41a984bb          	subw	s1,s3,s10
   1248e:	72048963          	beqz	s1,12bc0 <_vfprintf_r+0x824>
   12492:	7692                	ld	a3,288(sp)
   12494:	11812783          	lw	a5,280(sp)
   12498:	01a33023          	sd	s10,0(t1)
   1249c:	96a6                	add	a3,a3,s1
   1249e:	2785                	addiw	a5,a5,1
   124a0:	00933423          	sd	s1,8(t1)
   124a4:	f236                	sd	a3,288(sp)
   124a6:	10f12c23          	sw	a5,280(sp)
   124aa:	0007869b          	sext.w	a3,a5
   124ae:	479d                	li	a5,7
   124b0:	0341                	addi	t1,t1,16
   124b2:	08d7cd63          	blt	a5,a3,1254c <_vfprintf_r+0x1b0>
   124b6:	6722                	ld	a4,8(sp)
   124b8:	00144783          	lbu	a5,1(s0)
   124bc:	9f25                	addw	a4,a4,s1
   124be:	e43a                	sd	a4,8(sp)
   124c0:	70078063          	beqz	a5,12bc0 <_vfprintf_r+0x824>
   124c4:	00198493          	addi	s1,s3,1
   124c8:	0019cf03          	lbu	t5,1(s3)
   124cc:	0c010fa3          	sb	zero,223(sp)
   124d0:	5efd                	li	t4,-1
   124d2:	4b81                	li	s7,0
   124d4:	4401                	li	s0,0
   124d6:	49a5                	li	s3,9
   124d8:	02a00c13          	li	s8,42
   124dc:	0485                	addi	s1,s1,1
   124de:	000f0c9b          	sext.w	s9,t5
   124e2:	05a00613          	li	a2,90
   124e6:	fe0c879b          	addiw	a5,s9,-32
   124ea:	0007869b          	sext.w	a3,a5
   124ee:	18d66763          	bltu	a2,a3,1267c <_vfprintf_r+0x2e0>
   124f2:	1782                	slli	a5,a5,0x20
   124f4:	0000a717          	auipc	a4,0xa
   124f8:	3fc70713          	addi	a4,a4,1020 # 1c8f0 <zeroes.4526+0xa8>
   124fc:	83f9                	srli	a5,a5,0x1e
   124fe:	97ba                	add	a5,a5,a4
   12500:	439c                	lw	a5,0(a5)
   12502:	97ba                	add	a5,a5,a4
   12504:	8782                	jr	a5
   12506:	01046413          	ori	s0,s0,16
   1250a:	2401                	sext.w	s0,s0
   1250c:	0004cf03          	lbu	t5,0(s1)
   12510:	b7f1                	j	124dc <_vfprintf_r+0x140>
   12512:	85d2                	mv	a1,s4
   12514:	8556                	mv	a0,s5
   12516:	329010ef          	jal	ra,1403e <__swsetup_r>
   1251a:	c119                	beqz	a0,12520 <_vfprintf_r+0x184>
   1251c:	7cc0106f          	j	13ce8 <_vfprintf_r+0x194c>
   12520:	010a5783          	lhu	a5,16(s4)
   12524:	46a9                	li	a3,10
   12526:	8be9                	andi	a5,a5,26
   12528:	f0d79ae3          	bne	a5,a3,1243c <_vfprintf_r+0xa0>
   1252c:	012a1783          	lh	a5,18(s4)
   12530:	f007c6e3          	bltz	a5,1243c <_vfprintf_r+0xa0>
   12534:	66c2                	ld	a3,16(sp)
   12536:	866a                	mv	a2,s10
   12538:	85d2                	mv	a1,s4
   1253a:	8556                	mv	a0,s5
   1253c:	26f010ef          	jal	ra,13faa <__sbprintf>
   12540:	e42a                	sd	a0,8(sp)
   12542:	a089                	j	12584 <_vfprintf_r+0x1e8>
   12544:	41a984bb          	subw	s1,s3,s10
   12548:	dcb5                	beqz	s1,124c4 <_vfprintf_r+0x128>
   1254a:	b7a1                	j	12492 <_vfprintf_r+0xf6>
   1254c:	0a10                	addi	a2,sp,272
   1254e:	85d2                	mv	a1,s4
   12550:	8556                	mv	a0,s5
   12552:	65e070ef          	jal	ra,19bb0 <__sprint_r>
   12556:	e105                	bnez	a0,12576 <_vfprintf_r+0x1da>
   12558:	835a                	mv	t1,s6
   1255a:	bfb1                	j	124b6 <_vfprintf_r+0x11a>
   1255c:	0a10                	addi	a2,sp,272
   1255e:	85d2                	mv	a1,s4
   12560:	8556                	mv	a0,s5
   12562:	64e070ef          	jal	ra,19bb0 <__sprint_r>
   12566:	62050f63          	beqz	a0,12ba4 <_vfprintf_r+0x808>
   1256a:	7782                	ld	a5,32(sp)
   1256c:	c789                	beqz	a5,12576 <_vfprintf_r+0x1da>
   1256e:	85be                	mv	a1,a5
   12570:	8556                	mv	a0,s5
   12572:	23c020ef          	jal	ra,147ae <_free_r>
   12576:	010a5783          	lhu	a5,16(s4)
   1257a:	0407f793          	andi	a5,a5,64
   1257e:	c399                	beqz	a5,12584 <_vfprintf_r+0x1e8>
   12580:	7680106f          	j	13ce8 <_vfprintf_r+0x194c>
   12584:	27813083          	ld	ra,632(sp)
   12588:	27013403          	ld	s0,624(sp)
   1258c:	6522                	ld	a0,8(sp)
   1258e:	26813483          	ld	s1,616(sp)
   12592:	26013903          	ld	s2,608(sp)
   12596:	25813983          	ld	s3,600(sp)
   1259a:	25013a03          	ld	s4,592(sp)
   1259e:	24813a83          	ld	s5,584(sp)
   125a2:	24013b03          	ld	s6,576(sp)
   125a6:	23813b83          	ld	s7,568(sp)
   125aa:	23013c03          	ld	s8,560(sp)
   125ae:	22813c83          	ld	s9,552(sp)
   125b2:	22013d03          	ld	s10,544(sp)
   125b6:	21813d83          	ld	s11,536(sp)
   125ba:	28010113          	addi	sp,sp,640
   125be:	8082                	ret
   125c0:	66c2                	ld	a3,16(sp)
   125c2:	0000a797          	auipc	a5,0xa
   125c6:	2ee78793          	addi	a5,a5,750 # 1c8b0 <zeroes.4526+0x68>
   125ca:	f83e                	sd	a5,48(sp)
   125cc:	02047793          	andi	a5,s0,32
   125d0:	00868713          	addi	a4,a3,8 # ffffffffffffe008 <__BSS_END__+0xfffffffffffdea40>
   125d4:	cbf1                	beqz	a5,126a8 <_vfprintf_r+0x30c>
   125d6:	0006b983          	ld	s3,0(a3)
   125da:	00147793          	andi	a5,s0,1
   125de:	cf81                	beqz	a5,125f6 <_vfprintf_r+0x25a>
   125e0:	00098b63          	beqz	s3,125f6 <_vfprintf_r+0x25a>
   125e4:	00246413          	ori	s0,s0,2
   125e8:	03000793          	li	a5,48
   125ec:	0ef10023          	sb	a5,224(sp)
   125f0:	0f9100a3          	sb	s9,225(sp)
   125f4:	2401                	sext.w	s0,s0
   125f6:	bff47693          	andi	a3,s0,-1025
   125fa:	2681                	sext.w	a3,a3
   125fc:	e83a                	sd	a4,16(sp)
   125fe:	4789                	li	a5,2
   12600:	0c010fa3          	sb	zero,223(sp)
   12604:	577d                	li	a4,-1
   12606:	46ee8063          	beq	t4,a4,12a66 <_vfprintf_r+0x6ca>
   1260a:	f7f6f413          	andi	s0,a3,-129
   1260e:	2401                	sext.w	s0,s0
   12610:	2c099be3          	bnez	s3,130e6 <_vfprintf_r+0xd4a>
   12614:	400e98e3          	bnez	t4,13224 <_vfprintf_r+0xe88>
   12618:	3c079163          	bnez	a5,129da <_vfprintf_r+0x63e>
   1261c:	0016fc13          	andi	s8,a3,1
   12620:	18c10d13          	addi	s10,sp,396
   12624:	5c0c12e3          	bnez	s8,133e8 <_vfprintf_r+0x104c>
   12628:	000c099b          	sext.w	s3,s8
   1262c:	01dc5463          	bge	s8,t4,12634 <_vfprintf_r+0x298>
   12630:	000e899b          	sext.w	s3,t4
   12634:	0df14783          	lbu	a5,223(sp)
   12638:	f002                	sd	zero,32(sp)
   1263a:	ec82                	sd	zero,88(sp)
   1263c:	f482                	sd	zero,104(sp)
   1263e:	f082                	sd	zero,96(sp)
   12640:	48078b63          	beqz	a5,12ad6 <_vfprintf_r+0x73a>
   12644:	2985                	addiw	s3,s3,1
   12646:	a941                	j	12ad6 <_vfprintf_r+0x73a>
   12648:	4b81                	li	s7,0
   1264a:	0485                	addi	s1,s1,1
   1264c:	fff4c683          	lbu	a3,-1(s1)
   12650:	002b979b          	slliw	a5,s7,0x2
   12654:	01778bbb          	addw	s7,a5,s7
   12658:	fd0c8f1b          	addiw	t5,s9,-48
   1265c:	001b9b9b          	slliw	s7,s7,0x1
   12660:	fd06879b          	addiw	a5,a3,-48
   12664:	017f0bbb          	addw	s7,t5,s7
   12668:	00068c9b          	sext.w	s9,a3
   1266c:	fcf9ffe3          	bgeu	s3,a5,1264a <_vfprintf_r+0x2ae>
   12670:	fe0c879b          	addiw	a5,s9,-32
   12674:	0007869b          	sext.w	a3,a5
   12678:	e6d67de3          	bgeu	a2,a3,124f2 <_vfprintf_r+0x156>
   1267c:	540c8263          	beqz	s9,12bc0 <_vfprintf_r+0x824>
   12680:	13910423          	sb	s9,296(sp)
   12684:	0c010fa3          	sb	zero,223(sp)
   12688:	4985                	li	s3,1
   1268a:	4c05                	li	s8,1
   1268c:	12810d13          	addi	s10,sp,296
   12690:	a935                	j	12acc <_vfprintf_r+0x730>
   12692:	66c2                	ld	a3,16(sp)
   12694:	0000a797          	auipc	a5,0xa
   12698:	23478793          	addi	a5,a5,564 # 1c8c8 <zeroes.4526+0x80>
   1269c:	f83e                	sd	a5,48(sp)
   1269e:	02047793          	andi	a5,s0,32
   126a2:	00868713          	addi	a4,a3,8
   126a6:	fb85                	bnez	a5,125d6 <_vfprintf_r+0x23a>
   126a8:	01047793          	andi	a5,s0,16
   126ac:	560799e3          	bnez	a5,1341e <_vfprintf_r+0x1082>
   126b0:	66c2                	ld	a3,16(sp)
   126b2:	04047793          	andi	a5,s0,64
   126b6:	0006a983          	lw	s3,0(a3)
   126ba:	e399                	bnez	a5,126c0 <_vfprintf_r+0x324>
   126bc:	78f0006f          	j	1364a <_vfprintf_r+0x12ae>
   126c0:	19c2                	slli	s3,s3,0x30
   126c2:	0309d993          	srli	s3,s3,0x30
   126c6:	bf11                	j	125da <_vfprintf_r+0x23e>
   126c8:	0004cf03          	lbu	t5,0(s1)
   126cc:	00446413          	ori	s0,s0,4
   126d0:	2401                	sext.w	s0,s0
   126d2:	b529                	j	124dc <_vfprintf_r+0x140>
   126d4:	0004cf03          	lbu	t5,0(s1)
   126d8:	06800793          	li	a5,104
   126dc:	58ff0de3          	beq	t5,a5,13476 <_vfprintf_r+0x10da>
   126e0:	04046413          	ori	s0,s0,64
   126e4:	2401                	sext.w	s0,s0
   126e6:	bbdd                	j	124dc <_vfprintf_r+0x140>
   126e8:	00847793          	andi	a5,s0,8
   126ec:	50079be3          	bnez	a5,13402 <_vfprintf_r+0x1066>
   126f0:	67c2                	ld	a5,16(sp)
   126f2:	f01a                	sd	t1,32(sp)
   126f4:	ec76                	sd	t4,24(sp)
   126f6:	2388                	fld	fa0,0(a5)
   126f8:	07a1                	addi	a5,a5,8
   126fa:	e83e                	sd	a5,16(sp)
   126fc:	305090ef          	jal	ra,1c200 <__extenddftf2>
   12700:	7302                	ld	t1,32(sp)
   12702:	6ee2                	ld	t4,24(sp)
   12704:	e22a                	sd	a0,256(sp)
   12706:	e62e                	sd	a1,264(sp)
   12708:	0208                	addi	a0,sp,256
   1270a:	f01a                	sd	t1,32(sp)
   1270c:	ec76                	sd	t4,24(sp)
   1270e:	7e4040ef          	jal	ra,16ef2 <_ldcheck>
   12712:	d5aa                	sw	a0,232(sp)
   12714:	4789                	li	a5,2
   12716:	6ee2                	ld	t4,24(sp)
   12718:	7302                	ld	t1,32(sp)
   1271a:	6af50ae3          	beq	a0,a5,135ce <_vfprintf_r+0x1232>
   1271e:	4785                	li	a5,1
   12720:	76f50de3          	beq	a0,a5,1369a <_vfprintf_r+0x12fe>
   12724:	06100793          	li	a5,97
   12728:	00fc9463          	bne	s9,a5,12730 <_vfprintf_r+0x394>
   1272c:	65a0106f          	j	13d86 <_vfprintf_r+0x19ea>
   12730:	04100793          	li	a5,65
   12734:	00fc9463          	bne	s9,a5,1273c <_vfprintf_r+0x3a0>
   12738:	1f80106f          	j	13930 <_vfprintf_r+0x1594>
   1273c:	fdfcf713          	andi	a4,s9,-33
   12740:	57fd                	li	a5,-1
   12742:	f53a                	sd	a4,168(sp)
   12744:	00fe9463          	bne	t4,a5,1274c <_vfprintf_r+0x3b0>
   12748:	6e00106f          	j	13e28 <_vfprintf_r+0x1a8c>
   1274c:	04700793          	li	a5,71
   12750:	00f71463          	bne	a4,a5,12758 <_vfprintf_r+0x3bc>
   12754:	6be0106f          	j	13e12 <_vfprintf_r+0x1a76>
   12758:	6c32                	ld	s8,264(sp)
   1275a:	10046793          	ori	a5,s0,256
   1275e:	f922                	sd	s0,176(sp)
   12760:	2781                	sext.w	a5,a5
   12762:	6f92                	ld	t6,256(sp)
   12764:	000c5463          	bgez	s8,1276c <_vfprintf_r+0x3d0>
   12768:	4840106f          	j	13bec <_vfprintf_r+0x1850>
   1276c:	e582                	sd	zero,200(sp)
   1276e:	843e                	mv	s0,a5
   12770:	f002                	sd	zero,32(sp)
   12772:	772a                	ld	a4,168(sp)
   12774:	04600793          	li	a5,70
   12778:	00f71463          	bne	a4,a5,12780 <_vfprintf_r+0x3e4>
   1277c:	38a0106f          	j	13b06 <_vfprintf_r+0x176a>
   12780:	04500793          	li	a5,69
   12784:	fc1a                	sd	t1,56(sp)
   12786:	00f71463          	bne	a4,a5,1278e <_vfprintf_r+0x3f2>
   1278a:	65c0106f          	j	13de6 <_vfprintf_r+0x1a4a>
   1278e:	8776                	mv	a4,t4
   12790:	11bc                	addi	a5,sp,232
   12792:	85fe                	mv	a1,t6
   12794:	0f810893          	addi	a7,sp,248
   12798:	0ec10813          	addi	a6,sp,236
   1279c:	4689                	li	a3,2
   1279e:	8662                	mv	a2,s8
   127a0:	8556                	mv	a0,s5
   127a2:	f476                	sd	t4,40(sp)
   127a4:	ec7e                	sd	t6,24(sp)
   127a6:	085030ef          	jal	ra,1602a <_ldtoa_r>
   127aa:	772a                	ld	a4,168(sp)
   127ac:	04700793          	li	a5,71
   127b0:	8d2a                	mv	s10,a0
   127b2:	6fe2                	ld	t6,24(sp)
   127b4:	7ea2                	ld	t4,40(sp)
   127b6:	7362                	ld	t1,56(sp)
   127b8:	00f70463          	beq	a4,a5,127c0 <_vfprintf_r+0x424>
   127bc:	7d00106f          	j	13f8c <_vfprintf_r+0x1bf0>
   127c0:	77ca                	ld	a5,176(sp)
   127c2:	01d509b3          	add	s3,a0,t4
   127c6:	8b85                	andi	a5,a5,1
   127c8:	c399                	beqz	a5,127ce <_vfprintf_r+0x432>
   127ca:	3960106f          	j	13b60 <_vfprintf_r+0x17c4>
   127ce:	77ee                	ld	a5,248(sp)
   127d0:	572e                	lw	a4,232(sp)
   127d2:	41a787bb          	subw	a5,a5,s10
   127d6:	f43e                	sd	a5,40(sp)
   127d8:	f0ba                	sd	a4,96(sp)
   127da:	772a                	ld	a4,168(sp)
   127dc:	04700793          	li	a5,71
   127e0:	00f71463          	bne	a4,a5,127e8 <_vfprintf_r+0x44c>
   127e4:	30a0106f          	j	13aee <_vfprintf_r+0x1752>
   127e8:	772a                	ld	a4,168(sp)
   127ea:	04600793          	li	a5,70
   127ee:	00f71463          	bne	a4,a5,127f6 <_vfprintf_r+0x45a>
   127f2:	4740106f          	j	13c66 <_vfprintf_r+0x18ca>
   127f6:	7786                	ld	a5,96(sp)
   127f8:	772a                	ld	a4,168(sp)
   127fa:	04100593          	li	a1,65
   127fe:	37fd                	addiw	a5,a5,-1
   12800:	d5be                	sw	a5,232(sp)
   12802:	0ffcf693          	andi	a3,s9,255
   12806:	4601                	li	a2,0
   12808:	00b71663          	bne	a4,a1,12814 <_vfprintf_r+0x478>
   1280c:	26bd                	addiw	a3,a3,15
   1280e:	0ff6f693          	andi	a3,a3,255
   12812:	4605                	li	a2,1
   12814:	0ed10823          	sb	a3,240(sp)
   12818:	02b00693          	li	a3,43
   1281c:	0007d763          	bgez	a5,1282a <_vfprintf_r+0x48e>
   12820:	7706                	ld	a4,96(sp)
   12822:	4785                	li	a5,1
   12824:	02d00693          	li	a3,45
   12828:	9f99                	subw	a5,a5,a4
   1282a:	0ed108a3          	sb	a3,241(sp)
   1282e:	46a5                	li	a3,9
   12830:	00f6c463          	blt	a3,a5,12838 <_vfprintf_r+0x49c>
   12834:	6c00106f          	j	13ef4 <_vfprintf_r+0x1b58>
   12838:	0ff10513          	addi	a0,sp,255
   1283c:	85aa                	mv	a1,a0
   1283e:	4829                	li	a6,10
   12840:	06300893          	li	a7,99
   12844:	a019                	j	1284a <_vfprintf_r+0x4ae>
   12846:	85b2                	mv	a1,a2
   12848:	87b6                	mv	a5,a3
   1284a:	0307e6bb          	remw	a3,a5,a6
   1284e:	fff58613          	addi	a2,a1,-1
   12852:	0306869b          	addiw	a3,a3,48
   12856:	fed58fa3          	sb	a3,-1(a1)
   1285a:	0307c6bb          	divw	a3,a5,a6
   1285e:	fef8c4e3          	blt	a7,a5,12846 <_vfprintf_r+0x4aa>
   12862:	0306879b          	addiw	a5,a3,48
   12866:	0ff7f793          	andi	a5,a5,255
   1286a:	ffe58693          	addi	a3,a1,-2
   1286e:	fef60fa3          	sb	a5,-1(a2)
   12872:	00a6e463          	bltu	a3,a0,1287a <_vfprintf_r+0x4de>
   12876:	71c0106f          	j	13f92 <_vfprintf_r+0x1bf6>
   1287a:	0f210613          	addi	a2,sp,242
   1287e:	a019                	j	12884 <_vfprintf_r+0x4e8>
   12880:	0006c783          	lbu	a5,0(a3)
   12884:	0605                	addi	a2,a2,1
   12886:	0685                	addi	a3,a3,1
   12888:	fef60fa3          	sb	a5,-1(a2)
   1288c:	fea69ae3          	bne	a3,a0,12880 <_vfprintf_r+0x4e4>
   12890:	10110793          	addi	a5,sp,257
   12894:	8f8d                	sub	a5,a5,a1
   12896:	0f210713          	addi	a4,sp,242
   1289a:	97ba                	add	a5,a5,a4
   1289c:	1994                	addi	a3,sp,240
   1289e:	9f95                	subw	a5,a5,a3
   128a0:	e93e                	sd	a5,144(sp)
   128a2:	67ca                	ld	a5,144(sp)
   128a4:	7722                	ld	a4,40(sp)
   128a6:	4685                	li	a3,1
   128a8:	00f70c3b          	addw	s8,a4,a5
   128ac:	87e2                	mv	a5,s8
   128ae:	00e6c463          	blt	a3,a4,128b6 <_vfprintf_r+0x51a>
   128b2:	66c0106f          	j	13f1e <_vfprintf_r+0x1b82>
   128b6:	7766                	ld	a4,120(sp)
   128b8:	00e78c3b          	addw	s8,a5,a4
   128bc:	77ca                	ld	a5,176(sp)
   128be:	fffc4993          	not	s3,s8
   128c2:	43f9d993          	srai	s3,s3,0x3f
   128c6:	bff7f413          	andi	s0,a5,-1025
   128ca:	2401                	sext.w	s0,s0
   128cc:	013c79b3          	and	s3,s8,s3
   128d0:	10046413          	ori	s0,s0,256
   128d4:	2981                	sext.w	s3,s3
   128d6:	ec82                	sd	zero,88(sp)
   128d8:	f482                	sd	zero,104(sp)
   128da:	f082                	sd	zero,96(sp)
   128dc:	67ae                	ld	a5,200(sp)
   128de:	e399                	bnez	a5,128e4 <_vfprintf_r+0x548>
   128e0:	2fc0106f          	j	13bdc <_vfprintf_r+0x1840>
   128e4:	02d00793          	li	a5,45
   128e8:	0cf10fa3          	sb	a5,223(sp)
   128ec:	4e81                	li	t4,0
   128ee:	2985                	addiw	s3,s3,1
   128f0:	a2dd                	j	12ad6 <_vfprintf_r+0x73a>
   128f2:	67c2                	ld	a5,16(sp)
   128f4:	01046693          	ori	a3,s0,16
   128f8:	2681                	sext.w	a3,a3
   128fa:	00878713          	addi	a4,a5,8
   128fe:	67c2                	ld	a5,16(sp)
   12900:	0007b983          	ld	s3,0(a5)
   12904:	4785                	li	a5,1
   12906:	e83a                	sd	a4,16(sp)
   12908:	b9e5                	j	12600 <_vfprintf_r+0x264>
   1290a:	67c2                	ld	a5,16(sp)
   1290c:	0c010fa3          	sb	zero,223(sp)
   12910:	0007bd03          	ld	s10,0(a5)
   12914:	00878693          	addi	a3,a5,8
   12918:	380d09e3          	beqz	s10,134aa <_vfprintf_r+0x110e>
   1291c:	57fd                	li	a5,-1
   1291e:	4efe8be3          	beq	t4,a5,13614 <_vfprintf_r+0x1278>
   12922:	8676                	mv	a2,t4
   12924:	4581                	li	a1,0
   12926:	856a                	mv	a0,s10
   12928:	fc36                	sd	a3,56(sp)
   1292a:	ec1a                	sd	t1,24(sp)
   1292c:	e876                	sd	t4,16(sp)
   1292e:	65f040ef          	jal	ra,1778c <memchr>
   12932:	f02a                	sd	a0,32(sp)
   12934:	6ec2                	ld	t4,16(sp)
   12936:	6362                	ld	t1,24(sp)
   12938:	76e2                	ld	a3,56(sp)
   1293a:	e119                	bnez	a0,12940 <_vfprintf_r+0x5a4>
   1293c:	30e0106f          	j	13c4a <_vfprintf_r+0x18ae>
   12940:	7782                	ld	a5,32(sp)
   12942:	e836                	sd	a3,16(sp)
   12944:	f002                	sd	zero,32(sp)
   12946:	41a78c3b          	subw	s8,a5,s10
   1294a:	fffc4993          	not	s3,s8
   1294e:	0df14783          	lbu	a5,223(sp)
   12952:	43f9d993          	srai	s3,s3,0x3f
   12956:	013c79b3          	and	s3,s8,s3
   1295a:	ec82                	sd	zero,88(sp)
   1295c:	f482                	sd	zero,104(sp)
   1295e:	f082                	sd	zero,96(sp)
   12960:	2981                	sext.w	s3,s3
   12962:	4e81                	li	t4,0
   12964:	ce0790e3          	bnez	a5,12644 <_vfprintf_r+0x2a8>
   12968:	a2bd                	j	12ad6 <_vfprintf_r+0x73a>
   1296a:	6742                	ld	a4,16(sp)
   1296c:	01046693          	ori	a3,s0,16
   12970:	0006841b          	sext.w	s0,a3
   12974:	0721                	addi	a4,a4,8
   12976:	67c2                	ld	a5,16(sp)
   12978:	0007b983          	ld	s3,0(a5)
   1297c:	e83a                	sd	a4,16(sp)
   1297e:	bff47693          	andi	a3,s0,-1025
   12982:	2681                	sext.w	a3,a3
   12984:	4781                	li	a5,0
   12986:	b9ad                	j	12600 <_vfprintf_r+0x264>
   12988:	00846413          	ori	s0,s0,8
   1298c:	2401                	sext.w	s0,s0
   1298e:	0004cf03          	lbu	t5,0(s1)
   12992:	b6a9                	j	124dc <_vfprintf_r+0x140>
   12994:	6742                	ld	a4,16(sp)
   12996:	02047793          	andi	a5,s0,32
   1299a:	0721                	addi	a4,a4,8
   1299c:	26079ee3          	bnez	a5,13418 <_vfprintf_r+0x107c>
   129a0:	01047793          	andi	a5,s0,16
   129a4:	26079ae3          	bnez	a5,13418 <_vfprintf_r+0x107c>
   129a8:	04047793          	andi	a5,s0,64
   129ac:	4c078be3          	beqz	a5,13682 <_vfprintf_r+0x12e6>
   129b0:	67c2                	ld	a5,16(sp)
   129b2:	86a2                	mv	a3,s0
   129b4:	e83a                	sd	a4,16(sp)
   129b6:	00079983          	lh	s3,0(a5)
   129ba:	87ce                	mv	a5,s3
   129bc:	0807cb63          	bltz	a5,12a52 <_vfprintf_r+0x6b6>
   129c0:	57fd                	li	a5,-1
   129c2:	40fe8a63          	beq	t4,a5,12dd6 <_vfprintf_r+0xa3a>
   129c6:	f7f6f693          	andi	a3,a3,-129
   129ca:	0006841b          	sext.w	s0,a3
   129ce:	40099363          	bnez	s3,12dd4 <_vfprintf_r+0xa38>
   129d2:	000e8463          	beqz	t4,129da <_vfprintf_r+0x63e>
   129d6:	1020106f          	j	13ad8 <_vfprintf_r+0x173c>
   129da:	4e81                	li	t4,0
   129dc:	4c01                	li	s8,0
   129de:	18c10d13          	addi	s10,sp,396
   129e2:	b199                	j	12628 <_vfprintf_r+0x28c>
   129e4:	02b00793          	li	a5,43
   129e8:	0cf10fa3          	sb	a5,223(sp)
   129ec:	0004cf03          	lbu	t5,0(s1)
   129f0:	b4f5                	j	124dc <_vfprintf_r+0x140>
   129f2:	08046413          	ori	s0,s0,128
   129f6:	2401                	sext.w	s0,s0
   129f8:	0004cf03          	lbu	t5,0(s1)
   129fc:	b4c5                	j	124dc <_vfprintf_r+0x140>
   129fe:	0004cc83          	lbu	s9,0(s1)
   12a02:	00148793          	addi	a5,s1,1
   12a06:	018c9463          	bne	s9,s8,12a0e <_vfprintf_r+0x672>
   12a0a:	5580106f          	j	13f62 <_vfprintf_r+0x1bc6>
   12a0e:	fd0c869b          	addiw	a3,s9,-48
   12a12:	84be                	mv	s1,a5
   12a14:	4e81                	li	t4,0
   12a16:	acd9e8e3          	bltu	s3,a3,124e6 <_vfprintf_r+0x14a>
   12a1a:	0485                	addi	s1,s1,1
   12a1c:	002e979b          	slliw	a5,t4,0x2
   12a20:	fff4cc83          	lbu	s9,-1(s1)
   12a24:	01d78ebb          	addw	t4,a5,t4
   12a28:	001e9e9b          	slliw	t4,t4,0x1
   12a2c:	00de8ebb          	addw	t4,t4,a3
   12a30:	fd0c869b          	addiw	a3,s9,-48
   12a34:	fed9f3e3          	bgeu	s3,a3,12a1a <_vfprintf_r+0x67e>
   12a38:	b47d                	j	124e6 <_vfprintf_r+0x14a>
   12a3a:	67c2                	ld	a5,16(sp)
   12a3c:	01046693          	ori	a3,s0,16
   12a40:	2681                	sext.w	a3,a3
   12a42:	00878713          	addi	a4,a5,8
   12a46:	67c2                	ld	a5,16(sp)
   12a48:	639c                	ld	a5,0(a5)
   12a4a:	e83a                	sd	a4,16(sp)
   12a4c:	89be                	mv	s3,a5
   12a4e:	f607d9e3          	bgez	a5,129c0 <_vfprintf_r+0x624>
   12a52:	02d00793          	li	a5,45
   12a56:	0cf10fa3          	sb	a5,223(sp)
   12a5a:	577d                	li	a4,-1
   12a5c:	413009b3          	neg	s3,s3
   12a60:	4785                	li	a5,1
   12a62:	baee94e3          	bne	t4,a4,1260a <_vfprintf_r+0x26e>
   12a66:	4705                	li	a4,1
   12a68:	36e78763          	beq	a5,a4,12dd6 <_vfprintf_r+0xa3a>
   12a6c:	4709                	li	a4,2
   12a6e:	7ce78263          	beq	a5,a4,13232 <_vfprintf_r+0xe96>
   12a72:	18c10c13          	addi	s8,sp,396
   12a76:	8662                	mv	a2,s8
   12a78:	a011                	j	12a7c <_vfprintf_r+0x6e0>
   12a7a:	866a                	mv	a2,s10
   12a7c:	0079f793          	andi	a5,s3,7
   12a80:	03078793          	addi	a5,a5,48
   12a84:	fef60fa3          	sb	a5,-1(a2)
   12a88:	0039d993          	srli	s3,s3,0x3
   12a8c:	fff60d13          	addi	s10,a2,-1
   12a90:	fe0995e3          	bnez	s3,12a7a <_vfprintf_r+0x6de>
   12a94:	0016f593          	andi	a1,a3,1
   12a98:	3a058263          	beqz	a1,12e3c <_vfprintf_r+0xaa0>
   12a9c:	03000593          	li	a1,48
   12aa0:	38b78e63          	beq	a5,a1,12e3c <_vfprintf_r+0xaa0>
   12aa4:	1679                	addi	a2,a2,-2
   12aa6:	febd0fa3          	sb	a1,-1(s10)
   12aaa:	40cc0c3b          	subw	s8,s8,a2
   12aae:	8436                	mv	s0,a3
   12ab0:	8d32                	mv	s10,a2
   12ab2:	be9d                	j	12628 <_vfprintf_r+0x28c>
   12ab4:	6742                	ld	a4,16(sp)
   12ab6:	0c010fa3          	sb	zero,223(sp)
   12aba:	4985                	li	s3,1
   12abc:	431c                	lw	a5,0(a4)
   12abe:	0721                	addi	a4,a4,8
   12ac0:	e83a                	sd	a4,16(sp)
   12ac2:	12f10423          	sb	a5,296(sp)
   12ac6:	4c05                	li	s8,1
   12ac8:	12810d13          	addi	s10,sp,296
   12acc:	f002                	sd	zero,32(sp)
   12ace:	4e81                	li	t4,0
   12ad0:	ec82                	sd	zero,88(sp)
   12ad2:	f482                	sd	zero,104(sp)
   12ad4:	f082                	sd	zero,96(sp)
   12ad6:	00247893          	andi	a7,s0,2
   12ada:	2881                	sext.w	a7,a7
   12adc:	00088363          	beqz	a7,12ae2 <_vfprintf_r+0x746>
   12ae0:	2989                	addiw	s3,s3,2
   12ae2:	08447293          	andi	t0,s0,132
   12ae6:	7792                	ld	a5,288(sp)
   12ae8:	00029663          	bnez	t0,12af4 <_vfprintf_r+0x758>
   12aec:	413b883b          	subw	a6,s7,s3
   12af0:	5f004d63          	bgtz	a6,130ea <_vfprintf_r+0xd4e>
   12af4:	0df14683          	lbu	a3,223(sp)
   12af8:	c68d                	beqz	a3,12b22 <_vfprintf_r+0x786>
   12afa:	11812683          	lw	a3,280(sp)
   12afe:	0df10613          	addi	a2,sp,223
   12b02:	00c33023          	sd	a2,0(t1)
   12b06:	2685                	addiw	a3,a3,1
   12b08:	4605                	li	a2,1
   12b0a:	0785                	addi	a5,a5,1
   12b0c:	00c33423          	sd	a2,8(t1)
   12b10:	10d12c23          	sw	a3,280(sp)
   12b14:	0006861b          	sext.w	a2,a3
   12b18:	f23e                	sd	a5,288(sp)
   12b1a:	469d                	li	a3,7
   12b1c:	0341                	addi	t1,t1,16
   12b1e:	0ac6ca63          	blt	a3,a2,12bd2 <_vfprintf_r+0x836>
   12b22:	02088563          	beqz	a7,12b4c <_vfprintf_r+0x7b0>
   12b26:	11812683          	lw	a3,280(sp)
   12b2a:	1190                	addi	a2,sp,224
   12b2c:	00c33023          	sd	a2,0(t1)
   12b30:	2685                	addiw	a3,a3,1
   12b32:	4609                	li	a2,2
   12b34:	0789                	addi	a5,a5,2
   12b36:	00c33423          	sd	a2,8(t1)
   12b3a:	10d12c23          	sw	a3,280(sp)
   12b3e:	0006861b          	sext.w	a2,a3
   12b42:	f23e                	sd	a5,288(sp)
   12b44:	469d                	li	a3,7
   12b46:	0341                	addi	t1,t1,16
   12b48:	64c6c163          	blt	a3,a2,1318a <_vfprintf_r+0xdee>
   12b4c:	08000693          	li	a3,128
   12b50:	3cd28463          	beq	t0,a3,12f18 <_vfprintf_r+0xb7c>
   12b54:	418e8ebb          	subw	t4,t4,s8
   12b58:	45d04663          	bgtz	t4,12fa4 <_vfprintf_r+0xc08>
   12b5c:	10047693          	andi	a3,s0,256
   12b60:	2e069363          	bnez	a3,12e46 <_vfprintf_r+0xaaa>
   12b64:	11812703          	lw	a4,280(sp)
   12b68:	97e2                	add	a5,a5,s8
   12b6a:	01a33023          	sd	s10,0(t1)
   12b6e:	0017069b          	addiw	a3,a4,1
   12b72:	8736                	mv	a4,a3
   12b74:	01833423          	sd	s8,8(t1)
   12b78:	10e12c23          	sw	a4,280(sp)
   12b7c:	f23e                	sd	a5,288(sp)
   12b7e:	471d                	li	a4,7
   12b80:	0cd74963          	blt	a4,a3,12c52 <_vfprintf_r+0x8b6>
   12b84:	0341                	addi	t1,t1,16
   12b86:	8811                	andi	s0,s0,4
   12b88:	c409                	beqz	s0,12b92 <_vfprintf_r+0x7f6>
   12b8a:	413b843b          	subw	s0,s7,s3
   12b8e:	60804c63          	bgtz	s0,131a6 <_vfprintf_r+0xe0a>
   12b92:	875e                	mv	a4,s7
   12b94:	013bd363          	bge	s7,s3,12b9a <_vfprintf_r+0x7fe>
   12b98:	874e                	mv	a4,s3
   12b9a:	66a2                	ld	a3,8(sp)
   12b9c:	9f35                	addw	a4,a4,a3
   12b9e:	e43a                	sd	a4,8(sp)
   12ba0:	9a079ee3          	bnez	a5,1255c <_vfprintf_r+0x1c0>
   12ba4:	7782                	ld	a5,32(sp)
   12ba6:	10012c23          	sw	zero,280(sp)
   12baa:	c789                	beqz	a5,12bb4 <_vfprintf_r+0x818>
   12bac:	7582                	ld	a1,32(sp)
   12bae:	8556                	mv	a0,s5
   12bb0:	3ff010ef          	jal	ra,147ae <_free_r>
   12bb4:	835a                	mv	t1,s6
   12bb6:	8d26                	mv	s10,s1
   12bb8:	000d4783          	lbu	a5,0(s10)
   12bbc:	8a0797e3          	bnez	a5,1246a <_vfprintf_r+0xce>
   12bc0:	7792                	ld	a5,288(sp)
   12bc2:	9a078ae3          	beqz	a5,12576 <_vfprintf_r+0x1da>
   12bc6:	0a10                	addi	a2,sp,272
   12bc8:	85d2                	mv	a1,s4
   12bca:	8556                	mv	a0,s5
   12bcc:	7e5060ef          	jal	ra,19bb0 <__sprint_r>
   12bd0:	b25d                	j	12576 <_vfprintf_r+0x1da>
   12bd2:	0a10                	addi	a2,sp,272
   12bd4:	85d2                	mv	a1,s4
   12bd6:	8556                	mv	a0,s5
   12bd8:	e0f6                	sd	t4,64(sp)
   12bda:	fc16                	sd	t0,56(sp)
   12bdc:	ec46                	sd	a7,24(sp)
   12bde:	7d3060ef          	jal	ra,19bb0 <__sprint_r>
   12be2:	980514e3          	bnez	a0,1256a <_vfprintf_r+0x1ce>
   12be6:	7792                	ld	a5,288(sp)
   12be8:	835a                	mv	t1,s6
   12bea:	6e86                	ld	t4,64(sp)
   12bec:	72e2                	ld	t0,56(sp)
   12bee:	68e2                	ld	a7,24(sp)
   12bf0:	bf0d                	j	12b22 <_vfprintf_r+0x786>
   12bf2:	11812603          	lw	a2,280(sp)
   12bf6:	7766                	ld	a4,120(sp)
   12bf8:	668a                	ld	a3,128(sp)
   12bfa:	0341                	addi	t1,t1,16
   12bfc:	97ba                	add	a5,a5,a4
   12bfe:	fed33823          	sd	a3,-16(t1)
   12c02:	0016069b          	addiw	a3,a2,1
   12c06:	fee33c23          	sd	a4,-8(t1)
   12c0a:	f23e                	sd	a5,288(sp)
   12c0c:	10d12c23          	sw	a3,280(sp)
   12c10:	461d                	li	a2,7
   12c12:	00d65e63          	bge	a2,a3,12c2e <_vfprintf_r+0x892>
   12c16:	0a10                	addi	a2,sp,272
   12c18:	85d2                	mv	a1,s4
   12c1a:	8556                	mv	a0,s5
   12c1c:	795060ef          	jal	ra,19bb0 <__sprint_r>
   12c20:	940515e3          	bnez	a0,1256a <_vfprintf_r+0x1ce>
   12c24:	55ae                	lw	a1,232(sp)
   12c26:	7792                	ld	a5,288(sp)
   12c28:	11812683          	lw	a3,280(sp)
   12c2c:	835a                	mv	t1,s6
   12c2e:	0005d463          	bgez	a1,12c36 <_vfprintf_r+0x89a>
   12c32:	0be0106f          	j	13cf0 <_vfprintf_r+0x1954>
   12c36:	7722                	ld	a4,40(sp)
   12c38:	0016861b          	addiw	a2,a3,1
   12c3c:	01a33023          	sd	s10,0(t1)
   12c40:	97ba                	add	a5,a5,a4
   12c42:	00e33423          	sd	a4,8(t1)
   12c46:	f23e                	sd	a5,288(sp)
   12c48:	10c12c23          	sw	a2,280(sp)
   12c4c:	471d                	li	a4,7
   12c4e:	f2c75be3          	bge	a4,a2,12b84 <_vfprintf_r+0x7e8>
   12c52:	0a10                	addi	a2,sp,272
   12c54:	85d2                	mv	a1,s4
   12c56:	8556                	mv	a0,s5
   12c58:	759060ef          	jal	ra,19bb0 <__sprint_r>
   12c5c:	900517e3          	bnez	a0,1256a <_vfprintf_r+0x1ce>
   12c60:	7792                	ld	a5,288(sp)
   12c62:	835a                	mv	t1,s6
   12c64:	b70d                	j	12b86 <_vfprintf_r+0x7ea>
   12c66:	67c2                	ld	a5,16(sp)
   12c68:	0004cf03          	lbu	t5,0(s1)
   12c6c:	0007ab83          	lw	s7,0(a5)
   12c70:	07a1                	addi	a5,a5,8
   12c72:	e83e                	sd	a5,16(sp)
   12c74:	860bd4e3          	bgez	s7,124dc <_vfprintf_r+0x140>
   12c78:	41700bbb          	negw	s7,s7
   12c7c:	bc81                	j	126cc <_vfprintf_r+0x330>
   12c7e:	8556                	mv	a0,s5
   12c80:	f01a                	sd	t1,32(sp)
   12c82:	ec76                	sd	t4,24(sp)
   12c84:	2aa040ef          	jal	ra,16f2e <_localeconv_r>
   12c88:	651c                	ld	a5,8(a0)
   12c8a:	853e                	mv	a0,a5
   12c8c:	ed3e                	sd	a5,152(sp)
   12c8e:	aa3fd0ef          	jal	ra,10730 <strlen>
   12c92:	e52a                	sd	a0,136(sp)
   12c94:	8caa                	mv	s9,a0
   12c96:	8556                	mv	a0,s5
   12c98:	296040ef          	jal	ra,16f2e <_localeconv_r>
   12c9c:	6918                	ld	a4,16(a0)
   12c9e:	6ee2                	ld	t4,24(sp)
   12ca0:	7302                	ld	t1,32(sp)
   12ca2:	f8ba                	sd	a4,112(sp)
   12ca4:	0004cf03          	lbu	t5,0(s1)
   12ca8:	820c8ae3          	beqz	s9,124dc <_vfprintf_r+0x140>
   12cac:	820708e3          	beqz	a4,124dc <_vfprintf_r+0x140>
   12cb0:	00074783          	lbu	a5,0(a4)
   12cb4:	820784e3          	beqz	a5,124dc <_vfprintf_r+0x140>
   12cb8:	40046413          	ori	s0,s0,1024
   12cbc:	2401                	sext.w	s0,s0
   12cbe:	81fff06f          	j	124dc <_vfprintf_r+0x140>
   12cc2:	00146413          	ori	s0,s0,1
   12cc6:	2401                	sext.w	s0,s0
   12cc8:	0004cf03          	lbu	t5,0(s1)
   12ccc:	811ff06f          	j	124dc <_vfprintf_r+0x140>
   12cd0:	0df14783          	lbu	a5,223(sp)
   12cd4:	0004cf03          	lbu	t5,0(s1)
   12cd8:	800792e3          	bnez	a5,124dc <_vfprintf_r+0x140>
   12cdc:	02000793          	li	a5,32
   12ce0:	0cf10fa3          	sb	a5,223(sp)
   12ce4:	ff8ff06f          	j	124dc <_vfprintf_r+0x140>
   12ce8:	6742                	ld	a4,16(sp)
   12cea:	02047793          	andi	a5,s0,32
   12cee:	0721                	addi	a4,a4,8
   12cf0:	72079c63          	bnez	a5,13428 <_vfprintf_r+0x108c>
   12cf4:	01047793          	andi	a5,s0,16
   12cf8:	72079863          	bnez	a5,13428 <_vfprintf_r+0x108c>
   12cfc:	66c2                	ld	a3,16(sp)
   12cfe:	04047793          	andi	a5,s0,64
   12d02:	0006a983          	lw	s3,0(a3)
   12d06:	14078ae3          	beqz	a5,1365a <_vfprintf_r+0x12be>
   12d0a:	19c2                	slli	s3,s3,0x30
   12d0c:	0309d993          	srli	s3,s3,0x30
   12d10:	e83a                	sd	a4,16(sp)
   12d12:	86a2                	mv	a3,s0
   12d14:	4785                	li	a5,1
   12d16:	b0ed                	j	12600 <_vfprintf_r+0x264>
   12d18:	02046413          	ori	s0,s0,32
   12d1c:	2401                	sext.w	s0,s0
   12d1e:	0004cf03          	lbu	t5,0(s1)
   12d22:	fbaff06f          	j	124dc <_vfprintf_r+0x140>
   12d26:	6742                	ld	a4,16(sp)
   12d28:	77e1                	lui	a5,0xffff8
   12d2a:	8307c793          	xori	a5,a5,-2000
   12d2e:	0ef11023          	sh	a5,224(sp)
   12d32:	00870793          	addi	a5,a4,8
   12d36:	00246693          	ori	a3,s0,2
   12d3a:	e83e                	sd	a5,16(sp)
   12d3c:	0000a797          	auipc	a5,0xa
   12d40:	b7478793          	addi	a5,a5,-1164 # 1c8b0 <zeroes.4526+0x68>
   12d44:	f83e                	sd	a5,48(sp)
   12d46:	00073983          	ld	s3,0(a4)
   12d4a:	2681                	sext.w	a3,a3
   12d4c:	4789                	li	a5,2
   12d4e:	07800c93          	li	s9,120
   12d52:	b07d                	j	12600 <_vfprintf_r+0x264>
   12d54:	6742                	ld	a4,16(sp)
   12d56:	02047793          	andi	a5,s0,32
   12d5a:	0721                	addi	a4,a4,8
   12d5c:	c0079de3          	bnez	a5,12976 <_vfprintf_r+0x5da>
   12d60:	01047793          	andi	a5,s0,16
   12d64:	c00799e3          	bnez	a5,12976 <_vfprintf_r+0x5da>
   12d68:	66c2                	ld	a3,16(sp)
   12d6a:	04047793          	andi	a5,s0,64
   12d6e:	0006a983          	lw	s3,0(a3)
   12d72:	0e078fe3          	beqz	a5,13670 <_vfprintf_r+0x12d4>
   12d76:	19c2                	slli	s3,s3,0x30
   12d78:	0309d993          	srli	s3,s3,0x30
   12d7c:	e83a                	sd	a4,16(sp)
   12d7e:	b101                	j	1297e <_vfprintf_r+0x5e2>
   12d80:	66c2                	ld	a3,16(sp)
   12d82:	02047793          	andi	a5,s0,32
   12d86:	6298                	ld	a4,0(a3)
   12d88:	06a1                	addi	a3,a3,8
   12d8a:	e836                	sd	a3,16(sp)
   12d8c:	66079663          	bnez	a5,133f8 <_vfprintf_r+0x105c>
   12d90:	01047793          	andi	a5,s0,16
   12d94:	66079263          	bnez	a5,133f8 <_vfprintf_r+0x105c>
   12d98:	04047793          	andi	a5,s0,64
   12d9c:	34079ce3          	bnez	a5,138f4 <_vfprintf_r+0x1558>
   12da0:	20047413          	andi	s0,s0,512
   12da4:	67a2                	ld	a5,8(sp)
   12da6:	e019                	bnez	s0,12dac <_vfprintf_r+0xa10>
   12da8:	0780106f          	j	13e20 <_vfprintf_r+0x1a84>
   12dac:	00f70023          	sb	a5,0(a4)
   12db0:	8d26                	mv	s10,s1
   12db2:	b519                	j	12bb8 <_vfprintf_r+0x81c>
   12db4:	0004cf03          	lbu	t5,0(s1)
   12db8:	06c00793          	li	a5,108
   12dbc:	6cff0f63          	beq	t5,a5,1349a <_vfprintf_r+0x10fe>
   12dc0:	01046413          	ori	s0,s0,16
   12dc4:	2401                	sext.w	s0,s0
   12dc6:	f16ff06f          	j	124dc <_vfprintf_r+0x140>
   12dca:	8556                	mv	a0,s5
   12dcc:	0db010ef          	jal	ra,146a6 <__sinit>
   12dd0:	e2cff06f          	j	123fc <_vfprintf_r+0x60>
   12dd4:	86a2                	mv	a3,s0
   12dd6:	47a5                	li	a5,9
   12dd8:	0137eb63          	bltu	a5,s3,12dee <_vfprintf_r+0xa52>
   12ddc:	0309899b          	addiw	s3,s3,48
   12de0:	193105a3          	sb	s3,395(sp)
   12de4:	8436                	mv	s0,a3
   12de6:	4c05                	li	s8,1
   12de8:	18b10d13          	addi	s10,sp,395
   12dec:	b835                	j	12628 <_vfprintf_r+0x28c>
   12dee:	4006f793          	andi	a5,a3,1024
   12df2:	18c10c13          	addi	s8,sp,396
   12df6:	2781                	sext.w	a5,a5
   12df8:	f402                	sd	zero,40(sp)
   12dfa:	85e2                	mv	a1,s8
   12dfc:	4429                	li	s0,10
   12dfe:	4825                	li	a6,9
   12e00:	0ff00893          	li	a7,255
   12e04:	a039                	j	12e12 <_vfprintf_r+0xa76>
   12e06:	0289d633          	divu	a2,s3,s0
   12e0a:	03387963          	bgeu	a6,s3,12e3c <_vfprintf_r+0xaa0>
   12e0e:	89b2                	mv	s3,a2
   12e10:	85ea                	mv	a1,s10
   12e12:	7722                	ld	a4,40(sp)
   12e14:	fff58d13          	addi	s10,a1,-1
   12e18:	2705                	addiw	a4,a4,1
   12e1a:	f43a                	sd	a4,40(sp)
   12e1c:	0289f633          	remu	a2,s3,s0
   12e20:	0306061b          	addiw	a2,a2,48
   12e24:	fec58fa3          	sb	a2,-1(a1)
   12e28:	dff9                	beqz	a5,12e06 <_vfprintf_r+0xa6a>
   12e2a:	7646                	ld	a2,112(sp)
   12e2c:	00064603          	lbu	a2,0(a2)
   12e30:	fcc71be3          	bne	a4,a2,12e06 <_vfprintf_r+0xa6a>
   12e34:	fd1609e3          	beq	a2,a7,12e06 <_vfprintf_r+0xa6a>
   12e38:	25386ae3          	bltu	a6,s3,1388c <_vfprintf_r+0x14f0>
   12e3c:	41ac0c3b          	subw	s8,s8,s10
   12e40:	8436                	mv	s0,a3
   12e42:	fe6ff06f          	j	12628 <_vfprintf_r+0x28c>
   12e46:	06500693          	li	a3,101
   12e4a:	1d96db63          	bge	a3,s9,13020 <_vfprintf_r+0xc84>
   12e4e:	6512                	ld	a0,256(sp)
   12e50:	65b2                	ld	a1,264(sp)
   12e52:	4601                	li	a2,0
   12e54:	4681                	li	a3,0
   12e56:	fc3e                	sd	a5,56(sp)
   12e58:	ec1a                	sd	t1,24(sp)
   12e5a:	2a0080ef          	jal	ra,1b0fa <__eqtf2>
   12e5e:	6362                	ld	t1,24(sp)
   12e60:	77e2                	ld	a5,56(sp)
   12e62:	3e051d63          	bnez	a0,1325c <_vfprintf_r+0xec0>
   12e66:	11812703          	lw	a4,280(sp)
   12e6a:	0000a697          	auipc	a3,0xa
   12e6e:	a7e68693          	addi	a3,a3,-1410 # 1c8e8 <zeroes.4526+0xa0>
   12e72:	0785                	addi	a5,a5,1
   12e74:	2705                	addiw	a4,a4,1
   12e76:	00d33023          	sd	a3,0(t1)
   12e7a:	4685                	li	a3,1
   12e7c:	00d33423          	sd	a3,8(t1)
   12e80:	f23e                	sd	a5,288(sp)
   12e82:	0007069b          	sext.w	a3,a4
   12e86:	10e12c23          	sw	a4,280(sp)
   12e8a:	479d                	li	a5,7
   12e8c:	0341                	addi	t1,t1,16
   12e8e:	70d7ce63          	blt	a5,a3,135aa <_vfprintf_r+0x120e>
   12e92:	57ae                	lw	a5,232(sp)
   12e94:	7722                	ld	a4,40(sp)
   12e96:	00e7c763          	blt	a5,a4,12ea4 <_vfprintf_r+0xb08>
   12e9a:	00147793          	andi	a5,s0,1
   12e9e:	e399                	bnez	a5,12ea4 <_vfprintf_r+0xb08>
   12ea0:	7792                	ld	a5,288(sp)
   12ea2:	b1d5                	j	12b86 <_vfprintf_r+0x7ea>
   12ea4:	678a                	ld	a5,128(sp)
   12ea6:	76e6                	ld	a3,120(sp)
   12ea8:	11812703          	lw	a4,280(sp)
   12eac:	00f33023          	sd	a5,0(t1)
   12eb0:	7792                	ld	a5,288(sp)
   12eb2:	2705                	addiw	a4,a4,1
   12eb4:	00d33423          	sd	a3,8(t1)
   12eb8:	97b6                	add	a5,a5,a3
   12eba:	10e12c23          	sw	a4,280(sp)
   12ebe:	0007069b          	sext.w	a3,a4
   12ec2:	f23e                	sd	a5,288(sp)
   12ec4:	471d                	li	a4,7
   12ec6:	0341                	addi	t1,t1,16
   12ec8:	5ad74f63          	blt	a4,a3,13486 <_vfprintf_r+0x10ea>
   12ecc:	7722                	ld	a4,40(sp)
   12ece:	fff70c1b          	addiw	s8,a4,-1
   12ed2:	cb805ae3          	blez	s8,12b86 <_vfprintf_r+0x7ea>
   12ed6:	11812703          	lw	a4,280(sp)
   12eda:	6f8dd263          	bge	s11,s8,135be <_vfprintf_r+0x1222>
   12ede:	4c9d                	li	s9,7
   12ee0:	a021                	j	12ee8 <_vfprintf_r+0xb4c>
   12ee2:	3c41                	addiw	s8,s8,-16
   12ee4:	6d8ddd63          	bge	s11,s8,135be <_vfprintf_r+0x1222>
   12ee8:	2705                	addiw	a4,a4,1
   12eea:	07c1                	addi	a5,a5,16
   12eec:	01233023          	sd	s2,0(t1)
   12ef0:	01b33423          	sd	s11,8(t1)
   12ef4:	f23e                	sd	a5,288(sp)
   12ef6:	10e12c23          	sw	a4,280(sp)
   12efa:	0341                	addi	t1,t1,16
   12efc:	feecd3e3          	bge	s9,a4,12ee2 <_vfprintf_r+0xb46>
   12f00:	0a10                	addi	a2,sp,272
   12f02:	85d2                	mv	a1,s4
   12f04:	8556                	mv	a0,s5
   12f06:	4ab060ef          	jal	ra,19bb0 <__sprint_r>
   12f0a:	e6051063          	bnez	a0,1256a <_vfprintf_r+0x1ce>
   12f0e:	7792                	ld	a5,288(sp)
   12f10:	11812703          	lw	a4,280(sp)
   12f14:	835a                	mv	t1,s6
   12f16:	b7f1                	j	12ee2 <_vfprintf_r+0xb46>
   12f18:	413b883b          	subw	a6,s7,s3
   12f1c:	c3005ce3          	blez	a6,12b54 <_vfprintf_r+0x7b8>
   12f20:	11812683          	lw	a3,280(sp)
   12f24:	050dd663          	bge	s11,a6,12f70 <_vfprintf_r+0xbd4>
   12f28:	489d                	li	a7,7
   12f2a:	a021                	j	12f32 <_vfprintf_r+0xb96>
   12f2c:	3841                	addiw	a6,a6,-16
   12f2e:	050dd163          	bge	s11,a6,12f70 <_vfprintf_r+0xbd4>
   12f32:	2685                	addiw	a3,a3,1
   12f34:	07c1                	addi	a5,a5,16
   12f36:	01233023          	sd	s2,0(t1)
   12f3a:	01b33423          	sd	s11,8(t1)
   12f3e:	f23e                	sd	a5,288(sp)
   12f40:	10d12c23          	sw	a3,280(sp)
   12f44:	0341                	addi	t1,t1,16
   12f46:	fed8d3e3          	bge	a7,a3,12f2c <_vfprintf_r+0xb90>
   12f4a:	0a10                	addi	a2,sp,272
   12f4c:	85d2                	mv	a1,s4
   12f4e:	8556                	mv	a0,s5
   12f50:	fc42                	sd	a6,56(sp)
   12f52:	ec76                	sd	t4,24(sp)
   12f54:	45d060ef          	jal	ra,19bb0 <__sprint_r>
   12f58:	e0051963          	bnez	a0,1256a <_vfprintf_r+0x1ce>
   12f5c:	7862                	ld	a6,56(sp)
   12f5e:	7792                	ld	a5,288(sp)
   12f60:	11812683          	lw	a3,280(sp)
   12f64:	3841                	addiw	a6,a6,-16
   12f66:	835a                	mv	t1,s6
   12f68:	489d                	li	a7,7
   12f6a:	6ee2                	ld	t4,24(sp)
   12f6c:	fd0dc3e3          	blt	s11,a6,12f32 <_vfprintf_r+0xb96>
   12f70:	0016861b          	addiw	a2,a3,1
   12f74:	97c2                	add	a5,a5,a6
   12f76:	01233023          	sd	s2,0(t1)
   12f7a:	01033423          	sd	a6,8(t1)
   12f7e:	f23e                	sd	a5,288(sp)
   12f80:	10c12c23          	sw	a2,280(sp)
   12f84:	469d                	li	a3,7
   12f86:	0341                	addi	t1,t1,16
   12f88:	bcc6d6e3          	bge	a3,a2,12b54 <_vfprintf_r+0x7b8>
   12f8c:	0a10                	addi	a2,sp,272
   12f8e:	85d2                	mv	a1,s4
   12f90:	8556                	mv	a0,s5
   12f92:	ec76                	sd	t4,24(sp)
   12f94:	41d060ef          	jal	ra,19bb0 <__sprint_r>
   12f98:	dc051963          	bnez	a0,1256a <_vfprintf_r+0x1ce>
   12f9c:	7792                	ld	a5,288(sp)
   12f9e:	835a                	mv	t1,s6
   12fa0:	6ee2                	ld	t4,24(sp)
   12fa2:	be4d                	j	12b54 <_vfprintf_r+0x7b8>
   12fa4:	11812683          	lw	a3,280(sp)
   12fa8:	05ddd463          	bge	s11,t4,12ff0 <_vfprintf_r+0xc54>
   12fac:	481d                	li	a6,7
   12fae:	a021                	j	12fb6 <_vfprintf_r+0xc1a>
   12fb0:	3ec1                	addiw	t4,t4,-16
   12fb2:	03dddf63          	bge	s11,t4,12ff0 <_vfprintf_r+0xc54>
   12fb6:	2685                	addiw	a3,a3,1
   12fb8:	07c1                	addi	a5,a5,16
   12fba:	01233023          	sd	s2,0(t1)
   12fbe:	01b33423          	sd	s11,8(t1)
   12fc2:	f23e                	sd	a5,288(sp)
   12fc4:	10d12c23          	sw	a3,280(sp)
   12fc8:	0341                	addi	t1,t1,16
   12fca:	fed853e3          	bge	a6,a3,12fb0 <_vfprintf_r+0xc14>
   12fce:	0a10                	addi	a2,sp,272
   12fd0:	85d2                	mv	a1,s4
   12fd2:	8556                	mv	a0,s5
   12fd4:	ec76                	sd	t4,24(sp)
   12fd6:	3db060ef          	jal	ra,19bb0 <__sprint_r>
   12fda:	d8051863          	bnez	a0,1256a <_vfprintf_r+0x1ce>
   12fde:	6ee2                	ld	t4,24(sp)
   12fe0:	7792                	ld	a5,288(sp)
   12fe2:	11812683          	lw	a3,280(sp)
   12fe6:	3ec1                	addiw	t4,t4,-16
   12fe8:	835a                	mv	t1,s6
   12fea:	481d                	li	a6,7
   12fec:	fdddc5e3          	blt	s11,t4,12fb6 <_vfprintf_r+0xc1a>
   12ff0:	0016861b          	addiw	a2,a3,1
   12ff4:	97f6                	add	a5,a5,t4
   12ff6:	01233023          	sd	s2,0(t1)
   12ffa:	01d33423          	sd	t4,8(t1)
   12ffe:	f23e                	sd	a5,288(sp)
   13000:	10c12c23          	sw	a2,280(sp)
   13004:	469d                	li	a3,7
   13006:	0341                	addi	t1,t1,16
   13008:	b4c6dae3          	bge	a3,a2,12b5c <_vfprintf_r+0x7c0>
   1300c:	0a10                	addi	a2,sp,272
   1300e:	85d2                	mv	a1,s4
   13010:	8556                	mv	a0,s5
   13012:	39f060ef          	jal	ra,19bb0 <__sprint_r>
   13016:	d4051a63          	bnez	a0,1256a <_vfprintf_r+0x1ce>
   1301a:	7792                	ld	a5,288(sp)
   1301c:	835a                	mv	t1,s6
   1301e:	be3d                	j	12b5c <_vfprintf_r+0x7c0>
   13020:	11812f03          	lw	t5,280(sp)
   13024:	7722                	ld	a4,40(sp)
   13026:	4585                	li	a1,1
   13028:	001f069b          	addiw	a3,t5,1
   1302c:	01a33023          	sd	s10,0(t1)
   13030:	0785                	addi	a5,a5,1
   13032:	8636                	mv	a2,a3
   13034:	01030c13          	addi	s8,t1,16
   13038:	34e5d163          	bge	a1,a4,1337a <_vfprintf_r+0xfde>
   1303c:	4585                	li	a1,1
   1303e:	10c12c23          	sw	a2,280(sp)
   13042:	00b33423          	sd	a1,8(t1)
   13046:	f23e                	sd	a5,288(sp)
   13048:	461d                	li	a2,7
   1304a:	4cd64463          	blt	a2,a3,13512 <_vfprintf_r+0x1176>
   1304e:	7766                	ld	a4,120(sp)
   13050:	660a                	ld	a2,128(sp)
   13052:	0016881b          	addiw	a6,a3,1
   13056:	97ba                	add	a5,a5,a4
   13058:	00cc3023          	sd	a2,0(s8)
   1305c:	00ec3423          	sd	a4,8(s8)
   13060:	f23e                	sd	a5,288(sp)
   13062:	11012c23          	sw	a6,280(sp)
   13066:	469d                	li	a3,7
   13068:	0c41                	addi	s8,s8,16
   1306a:	4d06c163          	blt	a3,a6,1352c <_vfprintf_r+0x1190>
   1306e:	e4be                	sd	a5,72(sp)
   13070:	77a2                	ld	a5,40(sp)
   13072:	6512                	ld	a0,256(sp)
   13074:	65b2                	ld	a1,264(sp)
   13076:	00180e9b          	addiw	t4,a6,1
   1307a:	fff7889b          	addiw	a7,a5,-1
   1307e:	010c0313          	addi	t1,s8,16
   13082:	4601                	li	a2,0
   13084:	4681                	li	a3,0
   13086:	000e8c9b          	sext.w	s9,t4
   1308a:	e0f6                	sd	t4,64(sp)
   1308c:	fc1a                	sd	t1,56(sp)
   1308e:	ec46                	sd	a7,24(sp)
   13090:	e8c2                	sd	a6,80(sp)
   13092:	068080ef          	jal	ra,1b0fa <__eqtf2>
   13096:	68e2                	ld	a7,24(sp)
   13098:	7362                	ld	t1,56(sp)
   1309a:	6e86                	ld	t4,64(sp)
   1309c:	67a6                	ld	a5,72(sp)
   1309e:	2e050f63          	beqz	a0,1339c <_vfprintf_r+0x1000>
   130a2:	001d0713          	addi	a4,s10,1
   130a6:	97c6                	add	a5,a5,a7
   130a8:	00ec3023          	sd	a4,0(s8)
   130ac:	011c3423          	sd	a7,8(s8)
   130b0:	f23e                	sd	a5,288(sp)
   130b2:	11d12c23          	sw	t4,280(sp)
   130b6:	471d                	li	a4,7
   130b8:	39974f63          	blt	a4,s9,13456 <_vfprintf_r+0x10ba>
   130bc:	6846                	ld	a6,80(sp)
   130be:	020c0713          	addi	a4,s8,32
   130c2:	8c1a                	mv	s8,t1
   130c4:	00280c9b          	addiw	s9,a6,2
   130c8:	833a                	mv	t1,a4
   130ca:	66ca                	ld	a3,144(sp)
   130cc:	1998                	addi	a4,sp,240
   130ce:	00ec3023          	sd	a4,0(s8)
   130d2:	97b6                	add	a5,a5,a3
   130d4:	00dc3423          	sd	a3,8(s8)
   130d8:	f23e                	sd	a5,288(sp)
   130da:	11912c23          	sw	s9,280(sp)
   130de:	471d                	li	a4,7
   130e0:	ab9753e3          	bge	a4,s9,12b86 <_vfprintf_r+0x7ea>
   130e4:	b6bd                	j	12c52 <_vfprintf_r+0x8b6>
   130e6:	86a2                	mv	a3,s0
   130e8:	babd                	j	12a66 <_vfprintf_r+0x6ca>
   130ea:	11812683          	lw	a3,280(sp)
   130ee:	0000af97          	auipc	t6,0xa
   130f2:	972f8f93          	addi	t6,t6,-1678 # 1ca60 <blanks.4540>
   130f6:	439d                	li	t2,7
   130f8:	010dc663          	blt	s11,a6,13104 <_vfprintf_r+0xd68>
   130fc:	a889                	j	1314e <_vfprintf_r+0xdb2>
   130fe:	3841                	addiw	a6,a6,-16
   13100:	050dd763          	bge	s11,a6,1314e <_vfprintf_r+0xdb2>
   13104:	2685                	addiw	a3,a3,1
   13106:	07c1                	addi	a5,a5,16
   13108:	01f33023          	sd	t6,0(t1)
   1310c:	01b33423          	sd	s11,8(t1)
   13110:	f23e                	sd	a5,288(sp)
   13112:	10d12c23          	sw	a3,280(sp)
   13116:	0341                	addi	t1,t1,16
   13118:	fed3d3e3          	bge	t2,a3,130fe <_vfprintf_r+0xd62>
   1311c:	0a10                	addi	a2,sp,272
   1311e:	85d2                	mv	a1,s4
   13120:	8556                	mv	a0,s5
   13122:	e8fe                	sd	t6,80(sp)
   13124:	e4c2                	sd	a6,72(sp)
   13126:	e0f6                	sd	t4,64(sp)
   13128:	fc16                	sd	t0,56(sp)
   1312a:	ec46                	sd	a7,24(sp)
   1312c:	285060ef          	jal	ra,19bb0 <__sprint_r>
   13130:	c2051d63          	bnez	a0,1256a <_vfprintf_r+0x1ce>
   13134:	6826                	ld	a6,72(sp)
   13136:	7792                	ld	a5,288(sp)
   13138:	11812683          	lw	a3,280(sp)
   1313c:	3841                	addiw	a6,a6,-16
   1313e:	835a                	mv	t1,s6
   13140:	6fc6                	ld	t6,80(sp)
   13142:	439d                	li	t2,7
   13144:	6e86                	ld	t4,64(sp)
   13146:	72e2                	ld	t0,56(sp)
   13148:	68e2                	ld	a7,24(sp)
   1314a:	fb0dcde3          	blt	s11,a6,13104 <_vfprintf_r+0xd68>
   1314e:	0016861b          	addiw	a2,a3,1
   13152:	97c2                	add	a5,a5,a6
   13154:	01f33023          	sd	t6,0(t1)
   13158:	01033423          	sd	a6,8(t1)
   1315c:	f23e                	sd	a5,288(sp)
   1315e:	10c12c23          	sw	a2,280(sp)
   13162:	469d                	li	a3,7
   13164:	0341                	addi	t1,t1,16
   13166:	98c6d7e3          	bge	a3,a2,12af4 <_vfprintf_r+0x758>
   1316a:	0a10                	addi	a2,sp,272
   1316c:	85d2                	mv	a1,s4
   1316e:	8556                	mv	a0,s5
   13170:	e0f6                	sd	t4,64(sp)
   13172:	fc16                	sd	t0,56(sp)
   13174:	ec46                	sd	a7,24(sp)
   13176:	23b060ef          	jal	ra,19bb0 <__sprint_r>
   1317a:	be051863          	bnez	a0,1256a <_vfprintf_r+0x1ce>
   1317e:	7792                	ld	a5,288(sp)
   13180:	835a                	mv	t1,s6
   13182:	6e86                	ld	t4,64(sp)
   13184:	72e2                	ld	t0,56(sp)
   13186:	68e2                	ld	a7,24(sp)
   13188:	b2b5                	j	12af4 <_vfprintf_r+0x758>
   1318a:	0a10                	addi	a2,sp,272
   1318c:	85d2                	mv	a1,s4
   1318e:	8556                	mv	a0,s5
   13190:	fc76                	sd	t4,56(sp)
   13192:	ec16                	sd	t0,24(sp)
   13194:	21d060ef          	jal	ra,19bb0 <__sprint_r>
   13198:	bc051963          	bnez	a0,1256a <_vfprintf_r+0x1ce>
   1319c:	7792                	ld	a5,288(sp)
   1319e:	835a                	mv	t1,s6
   131a0:	7ee2                	ld	t4,56(sp)
   131a2:	62e2                	ld	t0,24(sp)
   131a4:	b265                	j	12b4c <_vfprintf_r+0x7b0>
   131a6:	11812703          	lw	a4,280(sp)
   131aa:	0000af97          	auipc	t6,0xa
   131ae:	8b6f8f93          	addi	t6,t6,-1866 # 1ca60 <blanks.4540>
   131b2:	4c1d                	li	s8,7
   131b4:	008dc663          	blt	s11,s0,131c0 <_vfprintf_r+0xe24>
   131b8:	a081                	j	131f8 <_vfprintf_r+0xe5c>
   131ba:	3441                	addiw	s0,s0,-16
   131bc:	028dde63          	bge	s11,s0,131f8 <_vfprintf_r+0xe5c>
   131c0:	2705                	addiw	a4,a4,1
   131c2:	07c1                	addi	a5,a5,16
   131c4:	01f33023          	sd	t6,0(t1)
   131c8:	01b33423          	sd	s11,8(t1)
   131cc:	f23e                	sd	a5,288(sp)
   131ce:	10e12c23          	sw	a4,280(sp)
   131d2:	0341                	addi	t1,t1,16
   131d4:	feec53e3          	bge	s8,a4,131ba <_vfprintf_r+0xe1e>
   131d8:	0a10                	addi	a2,sp,272
   131da:	85d2                	mv	a1,s4
   131dc:	8556                	mv	a0,s5
   131de:	ec7e                	sd	t6,24(sp)
   131e0:	1d1060ef          	jal	ra,19bb0 <__sprint_r>
   131e4:	b8051363          	bnez	a0,1256a <_vfprintf_r+0x1ce>
   131e8:	3441                	addiw	s0,s0,-16
   131ea:	7792                	ld	a5,288(sp)
   131ec:	11812703          	lw	a4,280(sp)
   131f0:	835a                	mv	t1,s6
   131f2:	6fe2                	ld	t6,24(sp)
   131f4:	fc8dc6e3          	blt	s11,s0,131c0 <_vfprintf_r+0xe24>
   131f8:	0017069b          	addiw	a3,a4,1
   131fc:	97a2                	add	a5,a5,s0
   131fe:	01f33023          	sd	t6,0(t1)
   13202:	00833423          	sd	s0,8(t1)
   13206:	f23e                	sd	a5,288(sp)
   13208:	10d12c23          	sw	a3,280(sp)
   1320c:	471d                	li	a4,7
   1320e:	98d752e3          	bge	a4,a3,12b92 <_vfprintf_r+0x7f6>
   13212:	0a10                	addi	a2,sp,272
   13214:	85d2                	mv	a1,s4
   13216:	8556                	mv	a0,s5
   13218:	199060ef          	jal	ra,19bb0 <__sprint_r>
   1321c:	b4051763          	bnez	a0,1256a <_vfprintf_r+0x1ce>
   13220:	7792                	ld	a5,288(sp)
   13222:	ba85                	j	12b92 <_vfprintf_r+0x7f6>
   13224:	4705                	li	a4,1
   13226:	0ae789e3          	beq	a5,a4,13ad8 <_vfprintf_r+0x173c>
   1322a:	4709                	li	a4,2
   1322c:	86a2                	mv	a3,s0
   1322e:	84e792e3          	bne	a5,a4,12a72 <_vfprintf_r+0x6d6>
   13232:	18c10c13          	addi	s8,sp,396
   13236:	8d62                	mv	s10,s8
   13238:	7742                	ld	a4,48(sp)
   1323a:	00f9f793          	andi	a5,s3,15
   1323e:	1d7d                	addi	s10,s10,-1
   13240:	97ba                	add	a5,a5,a4
   13242:	0007c783          	lbu	a5,0(a5)
   13246:	0049d993          	srli	s3,s3,0x4
   1324a:	00fd0023          	sb	a5,0(s10)
   1324e:	fe0995e3          	bnez	s3,13238 <_vfprintf_r+0xe9c>
   13252:	41ac0c3b          	subw	s8,s8,s10
   13256:	8436                	mv	s0,a3
   13258:	bd0ff06f          	j	12628 <_vfprintf_r+0x28c>
   1325c:	55ae                	lw	a1,232(sp)
   1325e:	2eb05463          	blez	a1,13546 <_vfprintf_r+0x11aa>
   13262:	7722                	ld	a4,40(sp)
   13264:	7686                	ld	a3,96(sp)
   13266:	00070c1b          	sext.w	s8,a4
   1326a:	1ce6c263          	blt	a3,a4,1342e <_vfprintf_r+0x1092>
   1326e:	03805263          	blez	s8,13292 <_vfprintf_r+0xef6>
   13272:	11812683          	lw	a3,280(sp)
   13276:	97e2                	add	a5,a5,s8
   13278:	01a33023          	sd	s10,0(t1)
   1327c:	0016861b          	addiw	a2,a3,1
   13280:	01833423          	sd	s8,8(t1)
   13284:	f23e                	sd	a5,288(sp)
   13286:	10c12c23          	sw	a2,280(sp)
   1328a:	469d                	li	a3,7
   1328c:	0341                	addi	t1,t1,16
   1328e:	5ec6c263          	blt	a3,a2,13872 <_vfprintf_r+0x14d6>
   13292:	fffc4693          	not	a3,s8
   13296:	7706                	ld	a4,96(sp)
   13298:	96fd                	srai	a3,a3,0x3f
   1329a:	00dc7c33          	and	s8,s8,a3
   1329e:	41870c3b          	subw	s8,a4,s8
   132a2:	23804363          	bgtz	s8,134c8 <_vfprintf_r+0x112c>
   132a6:	7706                	ld	a4,96(sp)
   132a8:	40047693          	andi	a3,s0,1024
   132ac:	00ed0c33          	add	s8,s10,a4
   132b0:	44069063          	bnez	a3,136f0 <_vfprintf_r+0x1354>
   132b4:	56ae                	lw	a3,232(sp)
   132b6:	7722                	ld	a4,40(sp)
   132b8:	00e6c663          	blt	a3,a4,132c4 <_vfprintf_r+0xf28>
   132bc:	00147613          	andi	a2,s0,1
   132c0:	60060563          	beqz	a2,138ca <_vfprintf_r+0x152e>
   132c4:	660a                	ld	a2,128(sp)
   132c6:	7766                	ld	a4,120(sp)
   132c8:	0341                	addi	t1,t1,16
   132ca:	fec33823          	sd	a2,-16(t1)
   132ce:	11812603          	lw	a2,280(sp)
   132d2:	97ba                	add	a5,a5,a4
   132d4:	fee33c23          	sd	a4,-8(t1)
   132d8:	0016059b          	addiw	a1,a2,1
   132dc:	f23e                	sd	a5,288(sp)
   132de:	10b12c23          	sw	a1,280(sp)
   132e2:	461d                	li	a2,7
   132e4:	14b641e3          	blt	a2,a1,13c26 <_vfprintf_r+0x188a>
   132e8:	7722                	ld	a4,40(sp)
   132ea:	40d7063b          	subw	a2,a4,a3
   132ee:	976a                	add	a4,a4,s10
   132f0:	4187073b          	subw	a4,a4,s8
   132f4:	86b2                	mv	a3,a2
   132f6:	00c75363          	bge	a4,a2,132fc <_vfprintf_r+0xf60>
   132fa:	86ba                	mv	a3,a4
   132fc:	00068c9b          	sext.w	s9,a3
   13300:	03905263          	blez	s9,13324 <_vfprintf_r+0xf88>
   13304:	11812703          	lw	a4,280(sp)
   13308:	97e6                	add	a5,a5,s9
   1330a:	01833023          	sd	s8,0(t1)
   1330e:	0017059b          	addiw	a1,a4,1
   13312:	01933423          	sd	s9,8(t1)
   13316:	f23e                	sd	a5,288(sp)
   13318:	10b12c23          	sw	a1,280(sp)
   1331c:	471d                	li	a4,7
   1331e:	0341                	addi	t1,t1,16
   13320:	1ab744e3          	blt	a4,a1,13cc8 <_vfprintf_r+0x192c>
   13324:	fffccc13          	not	s8,s9
   13328:	43fc5c13          	srai	s8,s8,0x3f
   1332c:	018cfc33          	and	s8,s9,s8
   13330:	41860c3b          	subw	s8,a2,s8
   13334:	858059e3          	blez	s8,12b86 <_vfprintf_r+0x7ea>
   13338:	11812703          	lw	a4,280(sp)
   1333c:	298dd163          	bge	s11,s8,135be <_vfprintf_r+0x1222>
   13340:	4c9d                	li	s9,7
   13342:	a021                	j	1334a <_vfprintf_r+0xfae>
   13344:	3c41                	addiw	s8,s8,-16
   13346:	278ddc63          	bge	s11,s8,135be <_vfprintf_r+0x1222>
   1334a:	2705                	addiw	a4,a4,1
   1334c:	07c1                	addi	a5,a5,16
   1334e:	01233023          	sd	s2,0(t1)
   13352:	01b33423          	sd	s11,8(t1)
   13356:	f23e                	sd	a5,288(sp)
   13358:	10e12c23          	sw	a4,280(sp)
   1335c:	0341                	addi	t1,t1,16
   1335e:	feecd3e3          	bge	s9,a4,13344 <_vfprintf_r+0xfa8>
   13362:	0a10                	addi	a2,sp,272
   13364:	85d2                	mv	a1,s4
   13366:	8556                	mv	a0,s5
   13368:	049060ef          	jal	ra,19bb0 <__sprint_r>
   1336c:	9e051f63          	bnez	a0,1256a <_vfprintf_r+0x1ce>
   13370:	7792                	ld	a5,288(sp)
   13372:	11812703          	lw	a4,280(sp)
   13376:	835a                	mv	t1,s6
   13378:	b7f1                	j	13344 <_vfprintf_r+0xfa8>
   1337a:	00147513          	andi	a0,s0,1
   1337e:	ca051fe3          	bnez	a0,1303c <_vfprintf_r+0xca0>
   13382:	00b33423          	sd	a1,8(t1)
   13386:	f23e                	sd	a5,288(sp)
   13388:	10d12c23          	sw	a3,280(sp)
   1338c:	471d                	li	a4,7
   1338e:	0cd74463          	blt	a4,a3,13456 <_vfprintf_r+0x10ba>
   13392:	002f0c9b          	addiw	s9,t5,2
   13396:	02030313          	addi	t1,t1,32
   1339a:	bb05                	j	130ca <_vfprintf_r+0xd2e>
   1339c:	d31057e3          	blez	a7,130ca <_vfprintf_r+0xd2e>
   133a0:	391dd7e3          	bge	s11,a7,13f2e <_vfprintf_r+0x1b92>
   133a4:	4c9d                	li	s9,7
   133a6:	a031                	j	133b2 <_vfprintf_r+0x1016>
   133a8:	38c1                	addiw	a7,a7,-16
   133aa:	091dd763          	bge	s11,a7,13438 <_vfprintf_r+0x109c>
   133ae:	00180e9b          	addiw	t4,a6,1
   133b2:	07c1                	addi	a5,a5,16
   133b4:	012c3023          	sd	s2,0(s8)
   133b8:	01bc3423          	sd	s11,8(s8)
   133bc:	f23e                	sd	a5,288(sp)
   133be:	000e881b          	sext.w	a6,t4
   133c2:	11d12c23          	sw	t4,280(sp)
   133c6:	0c41                	addi	s8,s8,16
   133c8:	ff0cd0e3          	bge	s9,a6,133a8 <_vfprintf_r+0x100c>
   133cc:	0a10                	addi	a2,sp,272
   133ce:	85d2                	mv	a1,s4
   133d0:	8556                	mv	a0,s5
   133d2:	ec46                	sd	a7,24(sp)
   133d4:	7dc060ef          	jal	ra,19bb0 <__sprint_r>
   133d8:	98051963          	bnez	a0,1256a <_vfprintf_r+0x1ce>
   133dc:	7792                	ld	a5,288(sp)
   133de:	11812803          	lw	a6,280(sp)
   133e2:	8c5a                	mv	s8,s6
   133e4:	68e2                	ld	a7,24(sp)
   133e6:	b7c9                	j	133a8 <_vfprintf_r+0x100c>
   133e8:	03000793          	li	a5,48
   133ec:	18f105a3          	sb	a5,395(sp)
   133f0:	18b10d13          	addi	s10,sp,395
   133f4:	a34ff06f          	j	12628 <_vfprintf_r+0x28c>
   133f8:	67a2                	ld	a5,8(sp)
   133fa:	8d26                	mv	s10,s1
   133fc:	e31c                	sd	a5,0(a4)
   133fe:	fbaff06f          	j	12bb8 <_vfprintf_r+0x81c>
   13402:	67c2                	ld	a5,16(sp)
   13404:	07bd                	addi	a5,a5,15
   13406:	9bc1                	andi	a5,a5,-16
   13408:	6394                	ld	a3,0(a5)
   1340a:	6798                	ld	a4,8(a5)
   1340c:	07c1                	addi	a5,a5,16
   1340e:	e83e                	sd	a5,16(sp)
   13410:	e236                	sd	a3,256(sp)
   13412:	e63a                	sd	a4,264(sp)
   13414:	af4ff06f          	j	12708 <_vfprintf_r+0x36c>
   13418:	86a2                	mv	a3,s0
   1341a:	e2cff06f          	j	12a46 <_vfprintf_r+0x6aa>
   1341e:	67c2                	ld	a5,16(sp)
   13420:	0007b983          	ld	s3,0(a5)
   13424:	9b6ff06f          	j	125da <_vfprintf_r+0x23e>
   13428:	86a2                	mv	a3,s0
   1342a:	cd4ff06f          	j	128fe <_vfprintf_r+0x562>
   1342e:	00068c1b          	sext.w	s8,a3
   13432:	e58040e3          	bgtz	s8,13272 <_vfprintf_r+0xed6>
   13436:	bdb1                	j	13292 <_vfprintf_r+0xef6>
   13438:	00180c9b          	addiw	s9,a6,1
   1343c:	010c0713          	addi	a4,s8,16
   13440:	97c6                	add	a5,a5,a7
   13442:	012c3023          	sd	s2,0(s8)
   13446:	011c3423          	sd	a7,8(s8)
   1344a:	f23e                	sd	a5,288(sp)
   1344c:	11912c23          	sw	s9,280(sp)
   13450:	469d                	li	a3,7
   13452:	3f96da63          	bge	a3,s9,13846 <_vfprintf_r+0x14aa>
   13456:	0a10                	addi	a2,sp,272
   13458:	85d2                	mv	a1,s4
   1345a:	8556                	mv	a0,s5
   1345c:	754060ef          	jal	ra,19bb0 <__sprint_r>
   13460:	90051563          	bnez	a0,1256a <_vfprintf_r+0x1ce>
   13464:	11812f03          	lw	t5,280(sp)
   13468:	7792                	ld	a5,288(sp)
   1346a:	1a010313          	addi	t1,sp,416
   1346e:	001f0c9b          	addiw	s9,t5,1
   13472:	8c5a                	mv	s8,s6
   13474:	b999                	j	130ca <_vfprintf_r+0xd2e>
   13476:	20046413          	ori	s0,s0,512
   1347a:	0014cf03          	lbu	t5,1(s1)
   1347e:	2401                	sext.w	s0,s0
   13480:	0485                	addi	s1,s1,1
   13482:	85aff06f          	j	124dc <_vfprintf_r+0x140>
   13486:	0a10                	addi	a2,sp,272
   13488:	85d2                	mv	a1,s4
   1348a:	8556                	mv	a0,s5
   1348c:	724060ef          	jal	ra,19bb0 <__sprint_r>
   13490:	8c051d63          	bnez	a0,1256a <_vfprintf_r+0x1ce>
   13494:	7792                	ld	a5,288(sp)
   13496:	835a                	mv	t1,s6
   13498:	bc15                	j	12ecc <_vfprintf_r+0xb30>
   1349a:	02046413          	ori	s0,s0,32
   1349e:	0014cf03          	lbu	t5,1(s1)
   134a2:	2401                	sext.w	s0,s0
   134a4:	0485                	addi	s1,s1,1
   134a6:	836ff06f          	j	124dc <_vfprintf_r+0x140>
   134aa:	000e871b          	sext.w	a4,t4
   134ae:	4799                	li	a5,6
   134b0:	3ce7ec63          	bltu	a5,a4,13888 <_vfprintf_r+0x14ec>
   134b4:	000e8c1b          	sext.w	s8,t4
   134b8:	89e2                	mv	s3,s8
   134ba:	e836                	sd	a3,16(sp)
   134bc:	00009d17          	auipc	s10,0x9
   134c0:	424d0d13          	addi	s10,s10,1060 # 1c8e0 <zeroes.4526+0x98>
   134c4:	e08ff06f          	j	12acc <_vfprintf_r+0x730>
   134c8:	11812683          	lw	a3,280(sp)
   134cc:	1f8dd963          	bge	s11,s8,136be <_vfprintf_r+0x1322>
   134d0:	4c9d                	li	s9,7
   134d2:	a021                	j	134da <_vfprintf_r+0x113e>
   134d4:	3c41                	addiw	s8,s8,-16
   134d6:	1f8dd463          	bge	s11,s8,136be <_vfprintf_r+0x1322>
   134da:	2685                	addiw	a3,a3,1
   134dc:	07c1                	addi	a5,a5,16
   134de:	01233023          	sd	s2,0(t1)
   134e2:	01b33423          	sd	s11,8(t1)
   134e6:	f23e                	sd	a5,288(sp)
   134e8:	10d12c23          	sw	a3,280(sp)
   134ec:	0341                	addi	t1,t1,16
   134ee:	fedcd3e3          	bge	s9,a3,134d4 <_vfprintf_r+0x1138>
   134f2:	0a10                	addi	a2,sp,272
   134f4:	85d2                	mv	a1,s4
   134f6:	8556                	mv	a0,s5
   134f8:	6b8060ef          	jal	ra,19bb0 <__sprint_r>
   134fc:	c119                	beqz	a0,13502 <_vfprintf_r+0x1166>
   134fe:	86cff06f          	j	1256a <_vfprintf_r+0x1ce>
   13502:	7792                	ld	a5,288(sp)
   13504:	11812683          	lw	a3,280(sp)
   13508:	835a                	mv	t1,s6
   1350a:	b7e9                	j	134d4 <_vfprintf_r+0x1138>
   1350c:	89ea                	mv	s3,s10
   1350e:	fb7fe06f          	j	124c4 <_vfprintf_r+0x128>
   13512:	0a10                	addi	a2,sp,272
   13514:	85d2                	mv	a1,s4
   13516:	8556                	mv	a0,s5
   13518:	698060ef          	jal	ra,19bb0 <__sprint_r>
   1351c:	c119                	beqz	a0,13522 <_vfprintf_r+0x1186>
   1351e:	84cff06f          	j	1256a <_vfprintf_r+0x1ce>
   13522:	7792                	ld	a5,288(sp)
   13524:	11812683          	lw	a3,280(sp)
   13528:	8c5a                	mv	s8,s6
   1352a:	b615                	j	1304e <_vfprintf_r+0xcb2>
   1352c:	0a10                	addi	a2,sp,272
   1352e:	85d2                	mv	a1,s4
   13530:	8556                	mv	a0,s5
   13532:	67e060ef          	jal	ra,19bb0 <__sprint_r>
   13536:	c119                	beqz	a0,1353c <_vfprintf_r+0x11a0>
   13538:	832ff06f          	j	1256a <_vfprintf_r+0x1ce>
   1353c:	7792                	ld	a5,288(sp)
   1353e:	11812803          	lw	a6,280(sp)
   13542:	8c5a                	mv	s8,s6
   13544:	b62d                	j	1306e <_vfprintf_r+0xcd2>
   13546:	11812683          	lw	a3,280(sp)
   1354a:	00009617          	auipc	a2,0x9
   1354e:	39e60613          	addi	a2,a2,926 # 1c8e8 <zeroes.4526+0xa0>
   13552:	00c33023          	sd	a2,0(t1)
   13556:	2685                	addiw	a3,a3,1
   13558:	4605                	li	a2,1
   1355a:	0785                	addi	a5,a5,1
   1355c:	00c33423          	sd	a2,8(t1)
   13560:	10d12c23          	sw	a3,280(sp)
   13564:	0006861b          	sext.w	a2,a3
   13568:	f23e                	sd	a5,288(sp)
   1356a:	469d                	li	a3,7
   1356c:	0341                	addi	t1,t1,16
   1356e:	2ec6c163          	blt	a3,a2,13850 <_vfprintf_r+0x14b4>
   13572:	e8059063          	bnez	a1,12bf2 <_vfprintf_r+0x856>
   13576:	7722                	ld	a4,40(sp)
   13578:	00147693          	andi	a3,s0,1
   1357c:	8ed9                	or	a3,a3,a4
   1357e:	e0068463          	beqz	a3,12b86 <_vfprintf_r+0x7ea>
   13582:	11812603          	lw	a2,280(sp)
   13586:	7766                	ld	a4,120(sp)
   13588:	668a                	ld	a3,128(sp)
   1358a:	97ba                	add	a5,a5,a4
   1358c:	00d33023          	sd	a3,0(t1)
   13590:	0016069b          	addiw	a3,a2,1
   13594:	00e33423          	sd	a4,8(t1)
   13598:	f23e                	sd	a5,288(sp)
   1359a:	10d12c23          	sw	a3,280(sp)
   1359e:	461d                	li	a2,7
   135a0:	e6d64b63          	blt	a2,a3,12c16 <_vfprintf_r+0x87a>
   135a4:	0341                	addi	t1,t1,16
   135a6:	e90ff06f          	j	12c36 <_vfprintf_r+0x89a>
   135aa:	0a10                	addi	a2,sp,272
   135ac:	85d2                	mv	a1,s4
   135ae:	8556                	mv	a0,s5
   135b0:	600060ef          	jal	ra,19bb0 <__sprint_r>
   135b4:	c119                	beqz	a0,135ba <_vfprintf_r+0x121e>
   135b6:	fb5fe06f          	j	1256a <_vfprintf_r+0x1ce>
   135ba:	835a                	mv	t1,s6
   135bc:	b8d9                	j	12e92 <_vfprintf_r+0xaf6>
   135be:	0017069b          	addiw	a3,a4,1
   135c2:	8736                	mv	a4,a3
   135c4:	97e2                	add	a5,a5,s8
   135c6:	01233023          	sd	s2,0(t1)
   135ca:	daaff06f          	j	12b74 <_vfprintf_r+0x7d8>
   135ce:	6512                	ld	a0,256(sp)
   135d0:	65b2                	ld	a1,264(sp)
   135d2:	4601                	li	a2,0
   135d4:	4681                	li	a3,0
   135d6:	ec1a                	sd	t1,24(sp)
   135d8:	46d070ef          	jal	ra,1b244 <__letf2>
   135dc:	6362                	ld	t1,24(sp)
   135de:	66054163          	bltz	a0,13c40 <_vfprintf_r+0x18a4>
   135e2:	0df14783          	lbu	a5,223(sp)
   135e6:	04700693          	li	a3,71
   135ea:	00009d17          	auipc	s10,0x9
   135ee:	2a6d0d13          	addi	s10,s10,678 # 1c890 <zeroes.4526+0x48>
   135f2:	2796cb63          	blt	a3,s9,13868 <_vfprintf_r+0x14cc>
   135f6:	f7f47413          	andi	s0,s0,-129
   135fa:	f002                	sd	zero,32(sp)
   135fc:	ec82                	sd	zero,88(sp)
   135fe:	f482                	sd	zero,104(sp)
   13600:	f082                	sd	zero,96(sp)
   13602:	2401                	sext.w	s0,s0
   13604:	498d                	li	s3,3
   13606:	4c0d                	li	s8,3
   13608:	4e81                	li	t4,0
   1360a:	c399                	beqz	a5,13610 <_vfprintf_r+0x1274>
   1360c:	838ff06f          	j	12644 <_vfprintf_r+0x2a8>
   13610:	cc6ff06f          	j	12ad6 <_vfprintf_r+0x73a>
   13614:	856a                	mv	a0,s10
   13616:	ec1a                	sd	t1,24(sp)
   13618:	e836                	sd	a3,16(sp)
   1361a:	916fd0ef          	jal	ra,10730 <strlen>
   1361e:	00050c1b          	sext.w	s8,a0
   13622:	fffc4993          	not	s3,s8
   13626:	0df14783          	lbu	a5,223(sp)
   1362a:	43f9d993          	srai	s3,s3,0x3f
   1362e:	013c79b3          	and	s3,s8,s3
   13632:	f002                	sd	zero,32(sp)
   13634:	ec82                	sd	zero,88(sp)
   13636:	f482                	sd	zero,104(sp)
   13638:	f082                	sd	zero,96(sp)
   1363a:	2981                	sext.w	s3,s3
   1363c:	4e81                	li	t4,0
   1363e:	6362                	ld	t1,24(sp)
   13640:	c399                	beqz	a5,13646 <_vfprintf_r+0x12aa>
   13642:	802ff06f          	j	12644 <_vfprintf_r+0x2a8>
   13646:	c90ff06f          	j	12ad6 <_vfprintf_r+0x73a>
   1364a:	20047793          	andi	a5,s0,512
   1364e:	2c078163          	beqz	a5,13910 <_vfprintf_r+0x1574>
   13652:	0ff9f993          	andi	s3,s3,255
   13656:	f85fe06f          	j	125da <_vfprintf_r+0x23e>
   1365a:	20047793          	andi	a5,s0,512
   1365e:	2a078163          	beqz	a5,13900 <_vfprintf_r+0x1564>
   13662:	0ff9f993          	andi	s3,s3,255
   13666:	e83a                	sd	a4,16(sp)
   13668:	86a2                	mv	a3,s0
   1366a:	4785                	li	a5,1
   1366c:	f95fe06f          	j	12600 <_vfprintf_r+0x264>
   13670:	20047793          	andi	a5,s0,512
   13674:	2a078363          	beqz	a5,1391a <_vfprintf_r+0x157e>
   13678:	0ff9f993          	andi	s3,s3,255
   1367c:	e83a                	sd	a4,16(sp)
   1367e:	b00ff06f          	j	1297e <_vfprintf_r+0x5e2>
   13682:	20047793          	andi	a5,s0,512
   13686:	24078f63          	beqz	a5,138e4 <_vfprintf_r+0x1548>
   1368a:	67c2                	ld	a5,16(sp)
   1368c:	86a2                	mv	a3,s0
   1368e:	e83a                	sd	a4,16(sp)
   13690:	00078983          	lb	s3,0(a5)
   13694:	87ce                	mv	a5,s3
   13696:	b26ff06f          	j	129bc <_vfprintf_r+0x620>
   1369a:	67b2                	ld	a5,264(sp)
   1369c:	2807c563          	bltz	a5,13926 <_vfprintf_r+0x158a>
   136a0:	0df14783          	lbu	a5,223(sp)
   136a4:	04700693          	li	a3,71
   136a8:	00009d17          	auipc	s10,0x9
   136ac:	1f8d0d13          	addi	s10,s10,504 # 1c8a0 <zeroes.4526+0x58>
   136b0:	f596d3e3          	bge	a3,s9,135f6 <_vfprintf_r+0x125a>
   136b4:	00009d17          	auipc	s10,0x9
   136b8:	1f4d0d13          	addi	s10,s10,500 # 1c8a8 <zeroes.4526+0x60>
   136bc:	bf2d                	j	135f6 <_vfprintf_r+0x125a>
   136be:	0016861b          	addiw	a2,a3,1
   136c2:	97e2                	add	a5,a5,s8
   136c4:	01233023          	sd	s2,0(t1)
   136c8:	01833423          	sd	s8,8(t1)
   136cc:	f23e                	sd	a5,288(sp)
   136ce:	10c12c23          	sw	a2,280(sp)
   136d2:	469d                	li	a3,7
   136d4:	0341                	addi	t1,t1,16
   136d6:	bcc6d8e3          	bge	a3,a2,132a6 <_vfprintf_r+0xf0a>
   136da:	0a10                	addi	a2,sp,272
   136dc:	85d2                	mv	a1,s4
   136de:	8556                	mv	a0,s5
   136e0:	4d0060ef          	jal	ra,19bb0 <__sprint_r>
   136e4:	c119                	beqz	a0,136ea <_vfprintf_r+0x134e>
   136e6:	e85fe06f          	j	1256a <_vfprintf_r+0x1ce>
   136ea:	7792                	ld	a5,288(sp)
   136ec:	835a                	mv	t1,s6
   136ee:	be65                	j	132a6 <_vfprintf_r+0xf0a>
   136f0:	7722                	ld	a4,40(sp)
   136f2:	4c9d                	li	s9,7
   136f4:	976a                	add	a4,a4,s10
   136f6:	fc3a                	sd	a4,56(sp)
   136f8:	7726                	ld	a4,104(sp)
   136fa:	cb51                	beqz	a4,1378e <_vfprintf_r+0x13f2>
   136fc:	6766                	ld	a4,88(sp)
   136fe:	eb59                	bnez	a4,13794 <_vfprintf_r+0x13f8>
   13700:	7746                	ld	a4,112(sp)
   13702:	177d                	addi	a4,a4,-1
   13704:	f8ba                	sd	a4,112(sp)
   13706:	7726                	ld	a4,104(sp)
   13708:	377d                	addiw	a4,a4,-1
   1370a:	f4ba                	sd	a4,104(sp)
   1370c:	66ea                	ld	a3,152(sp)
   1370e:	672a                	ld	a4,136(sp)
   13710:	0341                	addi	t1,t1,16
   13712:	fed33823          	sd	a3,-16(t1)
   13716:	11812683          	lw	a3,280(sp)
   1371a:	97ba                	add	a5,a5,a4
   1371c:	fee33c23          	sd	a4,-8(t1)
   13720:	0016861b          	addiw	a2,a3,1
   13724:	f23e                	sd	a5,288(sp)
   13726:	10c12c23          	sw	a2,280(sp)
   1372a:	0eccc163          	blt	s9,a2,1380c <_vfprintf_r+0x1470>
   1372e:	7746                	ld	a4,112(sp)
   13730:	00074603          	lbu	a2,0(a4)
   13734:	7762                	ld	a4,56(sp)
   13736:	0006069b          	sext.w	a3,a2
   1373a:	418705bb          	subw	a1,a4,s8
   1373e:	0006881b          	sext.w	a6,a3
   13742:	00d5d463          	bge	a1,a3,1374a <_vfprintf_r+0x13ae>
   13746:	0005881b          	sext.w	a6,a1
   1374a:	03005663          	blez	a6,13776 <_vfprintf_r+0x13da>
   1374e:	11812683          	lw	a3,280(sp)
   13752:	97c2                	add	a5,a5,a6
   13754:	01833023          	sd	s8,0(t1)
   13758:	0016861b          	addiw	a2,a3,1
   1375c:	01033423          	sd	a6,8(t1)
   13760:	f23e                	sd	a5,288(sp)
   13762:	10c12c23          	sw	a2,280(sp)
   13766:	0accce63          	blt	s9,a2,13822 <_vfprintf_r+0x1486>
   1376a:	7746                	ld	a4,112(sp)
   1376c:	0341                	addi	t1,t1,16
   1376e:	00074603          	lbu	a2,0(a4)
   13772:	0006069b          	sext.w	a3,a2
   13776:	fff84593          	not	a1,a6
   1377a:	95fd                	srai	a1,a1,0x3f
   1377c:	00b87833          	and	a6,a6,a1
   13780:	410686bb          	subw	a3,a3,a6
   13784:	00d04c63          	bgtz	a3,1379c <_vfprintf_r+0x1400>
   13788:	9c32                	add	s8,s8,a2
   1378a:	7726                	ld	a4,104(sp)
   1378c:	fb25                	bnez	a4,136fc <_vfprintf_r+0x1360>
   1378e:	6766                	ld	a4,88(sp)
   13790:	34070763          	beqz	a4,13ade <_vfprintf_r+0x1742>
   13794:	6766                	ld	a4,88(sp)
   13796:	377d                	addiw	a4,a4,-1
   13798:	ecba                	sd	a4,88(sp)
   1379a:	bf8d                	j	1370c <_vfprintf_r+0x1370>
   1379c:	11812603          	lw	a2,280(sp)
   137a0:	00ddc663          	blt	s11,a3,137ac <_vfprintf_r+0x1410>
   137a4:	a089                	j	137e6 <_vfprintf_r+0x144a>
   137a6:	36c1                	addiw	a3,a3,-16
   137a8:	02dddf63          	bge	s11,a3,137e6 <_vfprintf_r+0x144a>
   137ac:	2605                	addiw	a2,a2,1
   137ae:	07c1                	addi	a5,a5,16
   137b0:	01233023          	sd	s2,0(t1)
   137b4:	01b33423          	sd	s11,8(t1)
   137b8:	f23e                	sd	a5,288(sp)
   137ba:	10c12c23          	sw	a2,280(sp)
   137be:	0341                	addi	t1,t1,16
   137c0:	feccd3e3          	bge	s9,a2,137a6 <_vfprintf_r+0x140a>
   137c4:	0a10                	addi	a2,sp,272
   137c6:	85d2                	mv	a1,s4
   137c8:	8556                	mv	a0,s5
   137ca:	ec36                	sd	a3,24(sp)
   137cc:	3e4060ef          	jal	ra,19bb0 <__sprint_r>
   137d0:	c119                	beqz	a0,137d6 <_vfprintf_r+0x143a>
   137d2:	d99fe06f          	j	1256a <_vfprintf_r+0x1ce>
   137d6:	66e2                	ld	a3,24(sp)
   137d8:	7792                	ld	a5,288(sp)
   137da:	11812603          	lw	a2,280(sp)
   137de:	36c1                	addiw	a3,a3,-16
   137e0:	835a                	mv	t1,s6
   137e2:	fcddc5e3          	blt	s11,a3,137ac <_vfprintf_r+0x1410>
   137e6:	2605                	addiw	a2,a2,1
   137e8:	97b6                	add	a5,a5,a3
   137ea:	00d33423          	sd	a3,8(t1)
   137ee:	01233023          	sd	s2,0(t1)
   137f2:	f23e                	sd	a5,288(sp)
   137f4:	0006069b          	sext.w	a3,a2
   137f8:	10c12c23          	sw	a2,280(sp)
   137fc:	40dcc263          	blt	s9,a3,13c00 <_vfprintf_r+0x1864>
   13800:	7746                	ld	a4,112(sp)
   13802:	0341                	addi	t1,t1,16
   13804:	00074603          	lbu	a2,0(a4)
   13808:	9c32                	add	s8,s8,a2
   1380a:	b741                	j	1378a <_vfprintf_r+0x13ee>
   1380c:	0a10                	addi	a2,sp,272
   1380e:	85d2                	mv	a1,s4
   13810:	8556                	mv	a0,s5
   13812:	39e060ef          	jal	ra,19bb0 <__sprint_r>
   13816:	c119                	beqz	a0,1381c <_vfprintf_r+0x1480>
   13818:	d53fe06f          	j	1256a <_vfprintf_r+0x1ce>
   1381c:	7792                	ld	a5,288(sp)
   1381e:	835a                	mv	t1,s6
   13820:	b739                	j	1372e <_vfprintf_r+0x1392>
   13822:	0a10                	addi	a2,sp,272
   13824:	85d2                	mv	a1,s4
   13826:	8556                	mv	a0,s5
   13828:	ec42                	sd	a6,24(sp)
   1382a:	386060ef          	jal	ra,19bb0 <__sprint_r>
   1382e:	c119                	beqz	a0,13834 <_vfprintf_r+0x1498>
   13830:	d3bfe06f          	j	1256a <_vfprintf_r+0x1ce>
   13834:	77c6                	ld	a5,112(sp)
   13836:	835a                	mv	t1,s6
   13838:	6862                	ld	a6,24(sp)
   1383a:	0007c603          	lbu	a2,0(a5)
   1383e:	7792                	ld	a5,288(sp)
   13840:	0006069b          	sext.w	a3,a2
   13844:	bf0d                	j	13776 <_vfprintf_r+0x13da>
   13846:	2c85                	addiw	s9,s9,1
   13848:	01070313          	addi	t1,a4,16
   1384c:	8c3a                	mv	s8,a4
   1384e:	b8b5                	j	130ca <_vfprintf_r+0xd2e>
   13850:	0a10                	addi	a2,sp,272
   13852:	85d2                	mv	a1,s4
   13854:	8556                	mv	a0,s5
   13856:	35a060ef          	jal	ra,19bb0 <__sprint_r>
   1385a:	c119                	beqz	a0,13860 <_vfprintf_r+0x14c4>
   1385c:	d0ffe06f          	j	1256a <_vfprintf_r+0x1ce>
   13860:	55ae                	lw	a1,232(sp)
   13862:	7792                	ld	a5,288(sp)
   13864:	835a                	mv	t1,s6
   13866:	b331                	j	13572 <_vfprintf_r+0x11d6>
   13868:	00009d17          	auipc	s10,0x9
   1386c:	030d0d13          	addi	s10,s10,48 # 1c898 <zeroes.4526+0x50>
   13870:	b359                	j	135f6 <_vfprintf_r+0x125a>
   13872:	0a10                	addi	a2,sp,272
   13874:	85d2                	mv	a1,s4
   13876:	8556                	mv	a0,s5
   13878:	338060ef          	jal	ra,19bb0 <__sprint_r>
   1387c:	c119                	beqz	a0,13882 <_vfprintf_r+0x14e6>
   1387e:	cedfe06f          	j	1256a <_vfprintf_r+0x1ce>
   13882:	7792                	ld	a5,288(sp)
   13884:	835a                	mv	t1,s6
   13886:	b431                	j	13292 <_vfprintf_r+0xef6>
   13888:	4e99                	li	t4,6
   1388a:	b12d                	j	134b4 <_vfprintf_r+0x1118>
   1388c:	e0be                	sd	a5,64(sp)
   1388e:	67aa                	ld	a5,136(sp)
   13890:	65ea                	ld	a1,152(sp)
   13892:	fc1a                	sd	t1,56(sp)
   13894:	40fd0d33          	sub	s10,s10,a5
   13898:	863e                	mv	a2,a5
   1389a:	856a                	mv	a0,s10
   1389c:	f076                	sd	t4,32(sp)
   1389e:	ec36                	sd	a3,24(sp)
   138a0:	54a050ef          	jal	ra,18dea <strncpy>
   138a4:	77c6                	ld	a5,112(sp)
   138a6:	0289d633          	divu	a2,s3,s0
   138aa:	f402                	sd	zero,40(sp)
   138ac:	0017c583          	lbu	a1,1(a5)
   138b0:	66e2                	ld	a3,24(sp)
   138b2:	7e82                	ld	t4,32(sp)
   138b4:	00b035b3          	snez	a1,a1
   138b8:	97ae                	add	a5,a5,a1
   138ba:	f8be                	sd	a5,112(sp)
   138bc:	7362                	ld	t1,56(sp)
   138be:	6786                	ld	a5,64(sp)
   138c0:	4825                	li	a6,9
   138c2:	0ff00893          	li	a7,255
   138c6:	d48ff06f          	j	12e0e <_vfprintf_r+0xa72>
   138ca:	7622                	ld	a2,40(sp)
   138cc:	00cd0733          	add	a4,s10,a2
   138d0:	41870ebb          	subw	t4,a4,s8
   138d4:	9e15                	subw	a2,a2,a3
   138d6:	8c76                	mv	s8,t4
   138d8:	01d65363          	bge	a2,t4,138de <_vfprintf_r+0x1542>
   138dc:	8c32                	mv	s8,a2
   138de:	000c0c9b          	sext.w	s9,s8
   138e2:	b489                	j	13324 <_vfprintf_r+0xf88>
   138e4:	67c2                	ld	a5,16(sp)
   138e6:	86a2                	mv	a3,s0
   138e8:	e83a                	sd	a4,16(sp)
   138ea:	0007a983          	lw	s3,0(a5)
   138ee:	87ce                	mv	a5,s3
   138f0:	8ccff06f          	j	129bc <_vfprintf_r+0x620>
   138f4:	67a2                	ld	a5,8(sp)
   138f6:	8d26                	mv	s10,s1
   138f8:	00f71023          	sh	a5,0(a4)
   138fc:	abcff06f          	j	12bb8 <_vfprintf_r+0x81c>
   13900:	1982                	slli	s3,s3,0x20
   13902:	0209d993          	srli	s3,s3,0x20
   13906:	e83a                	sd	a4,16(sp)
   13908:	86a2                	mv	a3,s0
   1390a:	4785                	li	a5,1
   1390c:	cf5fe06f          	j	12600 <_vfprintf_r+0x264>
   13910:	1982                	slli	s3,s3,0x20
   13912:	0209d993          	srli	s3,s3,0x20
   13916:	cc5fe06f          	j	125da <_vfprintf_r+0x23e>
   1391a:	1982                	slli	s3,s3,0x20
   1391c:	0209d993          	srli	s3,s3,0x20
   13920:	e83a                	sd	a4,16(sp)
   13922:	85cff06f          	j	1297e <_vfprintf_r+0x5e2>
   13926:	02d00793          	li	a5,45
   1392a:	0cf10fa3          	sb	a5,223(sp)
   1392e:	bb9d                	j	136a4 <_vfprintf_r+0x1308>
   13930:	03000793          	li	a5,48
   13934:	0ef10023          	sb	a5,224(sp)
   13938:	05800713          	li	a4,88
   1393c:	00246793          	ori	a5,s0,2
   13940:	2781                	sext.w	a5,a5
   13942:	0ee100a3          	sb	a4,225(sp)
   13946:	06300693          	li	a3,99
   1394a:	f93e                	sd	a5,176(sp)
   1394c:	f002                	sd	zero,32(sp)
   1394e:	12810d13          	addi	s10,sp,296
   13952:	41d6cc63          	blt	a3,t4,13d6a <_vfprintf_r+0x19ce>
   13956:	6c32                	ld	s8,264(sp)
   13958:	fdfcf793          	andi	a5,s9,-33
   1395c:	10246413          	ori	s0,s0,258
   13960:	f53e                	sd	a5,168(sp)
   13962:	e582                	sd	zero,200(sp)
   13964:	2401                	sext.w	s0,s0
   13966:	6f92                	ld	t6,256(sp)
   13968:	280c4463          	bltz	s8,13bf0 <_vfprintf_r+0x1854>
   1396c:	06100793          	li	a5,97
   13970:	52fc8d63          	beq	s9,a5,13eaa <_vfprintf_r+0x1b0e>
   13974:	04100793          	li	a5,65
   13978:	00fc8463          	beq	s9,a5,13980 <_vfprintf_r+0x15e4>
   1397c:	df7fe06f          	j	12772 <_vfprintf_r+0x3d6>
   13980:	857e                	mv	a0,t6
   13982:	85e2                	mv	a1,s8
   13984:	fc1a                	sd	t1,56(sp)
   13986:	f476                	sd	t4,40(sp)
   13988:	13d080ef          	jal	ra,1c2c4 <__trunctfdf2>
   1398c:	11a8                	addi	a0,sp,232
   1398e:	0e4050ef          	jal	ra,18a72 <frexp>
   13992:	06f080ef          	jal	ra,1c200 <__extenddftf2>
   13996:	00009797          	auipc	a5,0x9
   1399a:	eea78793          	addi	a5,a5,-278 # 1c880 <zeroes.4526+0x38>
   1399e:	6794                	ld	a3,8(a5)
   139a0:	4601                	li	a2,0
   139a2:	151070ef          	jal	ra,1b2f2 <__multf3>
   139a6:	4601                	li	a2,0
   139a8:	4681                	li	a3,0
   139aa:	8c2a                	mv	s8,a0
   139ac:	ec2e                	sd	a1,24(sp)
   139ae:	74c070ef          	jal	ra,1b0fa <__eqtf2>
   139b2:	62e2                	ld	t0,24(sp)
   139b4:	7ea2                	ld	t4,40(sp)
   139b6:	7362                	ld	t1,56(sp)
   139b8:	e119                	bnez	a0,139be <_vfprintf_r+0x1622>
   139ba:	4785                	li	a5,1
   139bc:	d5be                	sw	a5,232(sp)
   139be:	00009797          	auipc	a5,0x9
   139c2:	f0a78793          	addi	a5,a5,-246 # 1c8c8 <zeroes.4526+0x80>
   139c6:	f0be                	sd	a5,96(sp)
   139c8:	000e869b          	sext.w	a3,t4
   139cc:	02069793          	slli	a5,a3,0x20
   139d0:	9381                	srli	a5,a5,0x20
   139d2:	0785                	addi	a5,a5,1
   139d4:	97ea                	add	a5,a5,s10
   139d6:	f13e                	sd	a5,160(sp)
   139d8:	00dd07bb          	addw	a5,s10,a3
   139dc:	df3e                	sw	a5,188(sp)
   139de:	00009797          	auipc	a5,0x9
   139e2:	e8278793          	addi	a5,a5,-382 # 1c860 <zeroes.4526+0x18>
   139e6:	679c                	ld	a5,8(a5)
   139e8:	ec6a                	sd	s10,24(sp)
   139ea:	e1be                	sd	a5,192(sp)
   139ec:	a839                	j	13a0a <_vfprintf_r+0x166e>
   139ee:	4601                	li	a2,0
   139f0:	4681                	li	a3,0
   139f2:	ecae                	sd	a1,88(sp)
   139f4:	e8aa                	sd	a0,80(sp)
   139f6:	704070ef          	jal	ra,1b0fa <__eqtf2>
   139fa:	7ee2                	ld	t4,56(sp)
   139fc:	6306                	ld	t1,64(sp)
   139fe:	6fc6                	ld	t6,80(sp)
   13a00:	68e6                	ld	a7,88(sp)
   13a02:	77a2                	ld	a5,40(sp)
   13a04:	62a6                	ld	t0,72(sp)
   13a06:	c135                	beqz	a0,13a6a <_vfprintf_r+0x16ce>
   13a08:	ec3e                	sd	a5,24(sp)
   13a0a:	668e                	ld	a3,192(sp)
   13a0c:	4601                	li	a2,0
   13a0e:	8596                	mv	a1,t0
   13a10:	8562                	mv	a0,s8
   13a12:	e09a                	sd	t1,64(sp)
   13a14:	fc76                	sd	t4,56(sp)
   13a16:	0dd070ef          	jal	ra,1b2f2 <__multf3>
   13a1a:	8c2e                	mv	s8,a1
   13a1c:	f42a                	sd	a0,40(sp)
   13a1e:	6f4080ef          	jal	ra,1c112 <__fixtfsi>
   13a22:	0005099b          	sext.w	s3,a0
   13a26:	854e                	mv	a0,s3
   13a28:	77a080ef          	jal	ra,1c1a2 <__floatsitf>
   13a2c:	7822                	ld	a6,40(sp)
   13a2e:	86ae                	mv	a3,a1
   13a30:	862a                	mv	a2,a0
   13a32:	85e2                	mv	a1,s8
   13a34:	8542                	mv	a0,a6
   13a36:	6c3070ef          	jal	ra,1b8f8 <__subtf3>
   13a3a:	7786                	ld	a5,96(sp)
   13a3c:	577a                	lw	a4,188(sp)
   13a3e:	e4ae                	sd	a1,72(sp)
   13a40:	97ce                	add	a5,a5,s3
   13a42:	0007c683          	lbu	a3,0(a5)
   13a46:	67e2                	ld	a5,24(sp)
   13a48:	8faa                	mv	t6,a0
   13a4a:	88ae                	mv	a7,a1
   13a4c:	00d78023          	sb	a3,0(a5)
   13a50:	0785                	addi	a5,a5,1
   13a52:	9f1d                	subw	a4,a4,a5
   13a54:	f4ba                	sd	a4,104(sp)
   13a56:	770a                	ld	a4,160(sp)
   13a58:	f43e                	sd	a5,40(sp)
   13a5a:	8c2a                	mv	s8,a0
   13a5c:	7ee2                	ld	t4,56(sp)
   13a5e:	6306                	ld	t1,64(sp)
   13a60:	f8e797e3          	bne	a5,a4,139ee <_vfprintf_r+0x1652>
   13a64:	778a                	ld	a5,160(sp)
   13a66:	577d                	li	a4,-1
   13a68:	f4ba                	sd	a4,104(sp)
   13a6a:	00009697          	auipc	a3,0x9
   13a6e:	e0668693          	addi	a3,a3,-506 # 1c870 <zeroes.4526+0x28>
   13a72:	e4be                	sd	a5,72(sp)
   13a74:	669c                	ld	a5,8(a3)
   13a76:	4601                	li	a2,0
   13a78:	857e                	mv	a0,t6
   13a7a:	86be                	mv	a3,a5
   13a7c:	85c6                	mv	a1,a7
   13a7e:	e09a                	sd	t1,64(sp)
   13a80:	fc76                	sd	t4,56(sp)
   13a82:	f43e                	sd	a5,40(sp)
   13a84:	ecfe                	sd	t6,88(sp)
   13a86:	e8c6                	sd	a7,80(sp)
   13a88:	70e070ef          	jal	ra,1b196 <__getf2>
   13a8c:	7ee2                	ld	t4,56(sp)
   13a8e:	6306                	ld	t1,64(sp)
   13a90:	67a6                	ld	a5,72(sp)
   13a92:	30a04163          	bgtz	a0,13d94 <_vfprintf_r+0x19f8>
   13a96:	6fe6                	ld	t6,88(sp)
   13a98:	68c6                	ld	a7,80(sp)
   13a9a:	76a2                	ld	a3,40(sp)
   13a9c:	4601                	li	a2,0
   13a9e:	857e                	mv	a0,t6
   13aa0:	85c6                	mv	a1,a7
   13aa2:	658070ef          	jal	ra,1b0fa <__eqtf2>
   13aa6:	7ee2                	ld	t4,56(sp)
   13aa8:	6306                	ld	t1,64(sp)
   13aaa:	67a6                	ld	a5,72(sp)
   13aac:	e509                	bnez	a0,13ab6 <_vfprintf_r+0x171a>
   13aae:	0019f993          	andi	s3,s3,1
   13ab2:	2e099163          	bnez	s3,13d94 <_vfprintf_r+0x19f8>
   13ab6:	7726                	ld	a4,104(sp)
   13ab8:	03000613          	li	a2,48
   13abc:	00170693          	addi	a3,a4,1
   13ac0:	96be                	add	a3,a3,a5
   13ac2:	00075463          	bgez	a4,13aca <_vfprintf_r+0x172e>
   13ac6:	d0bfe06f          	j	127d0 <_vfprintf_r+0x434>
   13aca:	0785                	addi	a5,a5,1
   13acc:	fec78fa3          	sb	a2,-1(a5)
   13ad0:	fef69de3          	bne	a3,a5,13aca <_vfprintf_r+0x172e>
   13ad4:	cfdfe06f          	j	127d0 <_vfprintf_r+0x434>
   13ad8:	86a2                	mv	a3,s0
   13ada:	b02ff06f          	j	12ddc <_vfprintf_r+0xa40>
   13ade:	7722                	ld	a4,40(sp)
   13ae0:	00ed06b3          	add	a3,s10,a4
   13ae4:	fd86f863          	bgeu	a3,s8,132b4 <_vfprintf_r+0xf18>
   13ae8:	8c36                	mv	s8,a3
   13aea:	fcaff06f          	j	132b4 <_vfprintf_r+0xf18>
   13aee:	7706                	ld	a4,96(sp)
   13af0:	57f5                	li	a5,-3
   13af2:	00f74463          	blt	a4,a5,13afa <_vfprintf_r+0x175e>
   13af6:	0aeed463          	bge	t4,a4,13b9e <_vfprintf_r+0x1802>
   13afa:	3cf9                	addiw	s9,s9,-2
   13afc:	fdfcf793          	andi	a5,s9,-33
   13b00:	f53e                	sd	a5,168(sp)
   13b02:	cf5fe06f          	j	127f6 <_vfprintf_r+0x45a>
   13b06:	11bc                	addi	a5,sp,232
   13b08:	8776                	mv	a4,t4
   13b0a:	468d                	li	a3,3
   13b0c:	85fe                	mv	a1,t6
   13b0e:	0f810893          	addi	a7,sp,248
   13b12:	0ec10813          	addi	a6,sp,236
   13b16:	8662                	mv	a2,s8
   13b18:	8556                	mv	a0,s5
   13b1a:	fc1a                	sd	t1,56(sp)
   13b1c:	f476                	sd	t4,40(sp)
   13b1e:	ec7e                	sd	t6,24(sp)
   13b20:	50a020ef          	jal	ra,1602a <_ldtoa_r>
   13b24:	00054683          	lbu	a3,0(a0)
   13b28:	03000793          	li	a5,48
   13b2c:	8d2a                	mv	s10,a0
   13b2e:	6fe2                	ld	t6,24(sp)
   13b30:	7ea2                	ld	t4,40(sp)
   13b32:	7362                	ld	t1,56(sp)
   13b34:	0ef69563          	bne	a3,a5,13c1e <_vfprintf_r+0x1882>
   13b38:	857e                	mv	a0,t6
   13b3a:	4601                	li	a2,0
   13b3c:	4681                	li	a3,0
   13b3e:	85e2                	mv	a1,s8
   13b40:	fc1a                	sd	t1,56(sp)
   13b42:	f476                	sd	t4,40(sp)
   13b44:	ec7e                	sd	t6,24(sp)
   13b46:	5b4070ef          	jal	ra,1b0fa <__eqtf2>
   13b4a:	6fe2                	ld	t6,24(sp)
   13b4c:	7ea2                	ld	t4,40(sp)
   13b4e:	7362                	ld	t1,56(sp)
   13b50:	c579                	beqz	a0,13c1e <_vfprintf_r+0x1882>
   13b52:	4685                	li	a3,1
   13b54:	41d687bb          	subw	a5,a3,t4
   13b58:	d5be                	sw	a5,232(sp)
   13b5a:	01d789b3          	add	s3,a5,t4
   13b5e:	99ea                	add	s3,s3,s10
   13b60:	4601                	li	a2,0
   13b62:	4681                	li	a3,0
   13b64:	857e                	mv	a0,t6
   13b66:	85e2                	mv	a1,s8
   13b68:	f41a                	sd	t1,40(sp)
   13b6a:	ec76                	sd	t4,24(sp)
   13b6c:	58e070ef          	jal	ra,1b0fa <__eqtf2>
   13b70:	87ce                	mv	a5,s3
   13b72:	6ee2                	ld	t4,24(sp)
   13b74:	7322                	ld	t1,40(sp)
   13b76:	e119                	bnez	a0,13b7c <_vfprintf_r+0x17e0>
   13b78:	c59fe06f          	j	127d0 <_vfprintf_r+0x434>
   13b7c:	77ee                	ld	a5,248(sp)
   13b7e:	03000613          	li	a2,48
   13b82:	0137e463          	bltu	a5,s3,13b8a <_vfprintf_r+0x17ee>
   13b86:	c4bfe06f          	j	127d0 <_vfprintf_r+0x434>
   13b8a:	00178693          	addi	a3,a5,1
   13b8e:	fdb6                	sd	a3,248(sp)
   13b90:	00c78023          	sb	a2,0(a5)
   13b94:	77ee                	ld	a5,248(sp)
   13b96:	ff37eae3          	bltu	a5,s3,13b8a <_vfprintf_r+0x17ee>
   13b9a:	c37fe06f          	j	127d0 <_vfprintf_r+0x434>
   13b9e:	77a2                	ld	a5,40(sp)
   13ba0:	7706                	ld	a4,96(sp)
   13ba2:	0ef74c63          	blt	a4,a5,13c9a <_vfprintf_r+0x18fe>
   13ba6:	77ca                	ld	a5,176(sp)
   13ba8:	8c3a                	mv	s8,a4
   13baa:	8b85                	andi	a5,a5,1
   13bac:	c781                	beqz	a5,13bb4 <_vfprintf_r+0x1818>
   13bae:	77e6                	ld	a5,120(sp)
   13bb0:	00e78c3b          	addw	s8,a5,a4
   13bb4:	77ca                	ld	a5,176(sp)
   13bb6:	4007f793          	andi	a5,a5,1024
   13bba:	c781                	beqz	a5,13bc2 <_vfprintf_r+0x1826>
   13bbc:	7786                	ld	a5,96(sp)
   13bbe:	26f04863          	bgtz	a5,13e2e <_vfprintf_r+0x1a92>
   13bc2:	fffc4993          	not	s3,s8
   13bc6:	43f9d993          	srai	s3,s3,0x3f
   13bca:	013c79b3          	and	s3,s8,s3
   13bce:	2981                	sext.w	s3,s3
   13bd0:	06700c93          	li	s9,103
   13bd4:	ec82                	sd	zero,88(sp)
   13bd6:	f482                	sd	zero,104(sp)
   13bd8:	d05fe06f          	j	128dc <_vfprintf_r+0x540>
   13bdc:	0df14783          	lbu	a5,223(sp)
   13be0:	4e81                	li	t4,0
   13be2:	c399                	beqz	a5,13be8 <_vfprintf_r+0x184c>
   13be4:	a61fe06f          	j	12644 <_vfprintf_r+0x2a8>
   13be8:	eeffe06f          	j	12ad6 <_vfprintf_r+0x73a>
   13bec:	f002                	sd	zero,32(sp)
   13bee:	843e                	mv	s0,a5
   13bf0:	57fd                	li	a5,-1
   13bf2:	17fe                	slli	a5,a5,0x3f
   13bf4:	00fc4c33          	xor	s8,s8,a5
   13bf8:	02d00793          	li	a5,45
   13bfc:	e5be                	sd	a5,200(sp)
   13bfe:	b3bd                	j	1396c <_vfprintf_r+0x15d0>
   13c00:	0a10                	addi	a2,sp,272
   13c02:	85d2                	mv	a1,s4
   13c04:	8556                	mv	a0,s5
   13c06:	7ab050ef          	jal	ra,19bb0 <__sprint_r>
   13c0a:	c119                	beqz	a0,13c10 <_vfprintf_r+0x1874>
   13c0c:	95ffe06f          	j	1256a <_vfprintf_r+0x1ce>
   13c10:	77c6                	ld	a5,112(sp)
   13c12:	835a                	mv	t1,s6
   13c14:	0007c603          	lbu	a2,0(a5)
   13c18:	7792                	ld	a5,288(sp)
   13c1a:	9c32                	add	s8,s8,a2
   13c1c:	b6bd                	j	1378a <_vfprintf_r+0x13ee>
   13c1e:	57ae                	lw	a5,232(sp)
   13c20:	01d789b3          	add	s3,a5,t4
   13c24:	bf2d                	j	13b5e <_vfprintf_r+0x17c2>
   13c26:	0a10                	addi	a2,sp,272
   13c28:	85d2                	mv	a1,s4
   13c2a:	8556                	mv	a0,s5
   13c2c:	785050ef          	jal	ra,19bb0 <__sprint_r>
   13c30:	c119                	beqz	a0,13c36 <_vfprintf_r+0x189a>
   13c32:	939fe06f          	j	1256a <_vfprintf_r+0x1ce>
   13c36:	56ae                	lw	a3,232(sp)
   13c38:	7792                	ld	a5,288(sp)
   13c3a:	835a                	mv	t1,s6
   13c3c:	eacff06f          	j	132e8 <_vfprintf_r+0xf4c>
   13c40:	02d00793          	li	a5,45
   13c44:	0cf10fa3          	sb	a5,223(sp)
   13c48:	ba79                	j	135e6 <_vfprintf_r+0x124a>
   13c4a:	0df14783          	lbu	a5,223(sp)
   13c4e:	e836                	sd	a3,16(sp)
   13c50:	ec82                	sd	zero,88(sp)
   13c52:	f482                	sd	zero,104(sp)
   13c54:	f082                	sd	zero,96(sp)
   13c56:	89f6                	mv	s3,t4
   13c58:	8c76                	mv	s8,t4
